
0401.elf:     file format elf32-avr

Sections:
Idx Name          Size      VMA       LMA       File off  Algn
  0 .data         0000000c  00800100  00002560  000025f4  2**0
                  CONTENTS, ALLOC, LOAD, DATA
  1 .text         00002560  00000000  00000000  00000094  2**1
                  CONTENTS, ALLOC, LOAD, READONLY, CODE
  2 .bss          00000008  0080010c  0080010c  00002600  2**0
                  ALLOC
  3 .stab         000006cc  00000000  00000000  00002600  2**2
                  CONTENTS, READONLY, DEBUGGING
  4 .stabstr      00000085  00000000  00000000  00002ccc  2**0
                  CONTENTS, READONLY, DEBUGGING
  5 .debug_aranges 00000180  00000000  00000000  00002d51  2**0
                  CONTENTS, READONLY, DEBUGGING
  6 .debug_pubnames 000002df  00000000  00000000  00002ed1  2**0
                  CONTENTS, READONLY, DEBUGGING
  7 .debug_info   00002a85  00000000  00000000  000031b0  2**0
                  CONTENTS, READONLY, DEBUGGING
  8 .debug_abbrev 0000111d  00000000  00000000  00005c35  2**0
                  CONTENTS, READONLY, DEBUGGING
  9 .debug_line   00001ec8  00000000  00000000  00006d52  2**0
                  CONTENTS, READONLY, DEBUGGING
 10 .debug_frame  00000280  00000000  00000000  00008c1c  2**2
                  CONTENTS, READONLY, DEBUGGING
 11 .debug_str    0000049e  00000000  00000000  00008e9c  2**0
                  CONTENTS, READONLY, DEBUGGING
 12 .debug_loc    00000c25  00000000  00000000  0000933a  2**0
                  CONTENTS, READONLY, DEBUGGING
 13 .debug_pubtypes 0000060e  00000000  00000000  00009f5f  2**0
                  CONTENTS, READONLY, DEBUGGING
 14 .debug_ranges 00000068  00000000  00000000  0000a56d  2**0
                  CONTENTS, READONLY, DEBUGGING

Disassembly of section .text:

00000000 <__vectors>:
       0:	0c 94 46 00 	jmp	0x8c	; 0x8c <__ctors_end>
       4:	0c 94 65 00 	jmp	0xca	; 0xca <__bad_interrupt>
       8:	0c 94 65 00 	jmp	0xca	; 0xca <__bad_interrupt>
       c:	0c 94 65 00 	jmp	0xca	; 0xca <__bad_interrupt>
      10:	0c 94 65 00 	jmp	0xca	; 0xca <__bad_interrupt>
      14:	0c 94 65 00 	jmp	0xca	; 0xca <__bad_interrupt>
      18:	0c 94 65 00 	jmp	0xca	; 0xca <__bad_interrupt>
      1c:	0c 94 65 00 	jmp	0xca	; 0xca <__bad_interrupt>
      20:	0c 94 65 00 	jmp	0xca	; 0xca <__bad_interrupt>
      24:	0c 94 65 00 	jmp	0xca	; 0xca <__bad_interrupt>
      28:	0c 94 65 00 	jmp	0xca	; 0xca <__bad_interrupt>
      2c:	0c 94 65 00 	jmp	0xca	; 0xca <__bad_interrupt>
      30:	0c 94 65 00 	jmp	0xca	; 0xca <__bad_interrupt>
      34:	0c 94 65 00 	jmp	0xca	; 0xca <__bad_interrupt>
      38:	0c 94 65 00 	jmp	0xca	; 0xca <__bad_interrupt>
      3c:	0c 94 65 00 	jmp	0xca	; 0xca <__bad_interrupt>
      40:	0c 94 53 0c 	jmp	0x18a6	; 0x18a6 <__vector_16>
      44:	0c 94 65 00 	jmp	0xca	; 0xca <__bad_interrupt>
      48:	0c 94 65 00 	jmp	0xca	; 0xca <__bad_interrupt>
      4c:	0c 94 65 00 	jmp	0xca	; 0xca <__bad_interrupt>
      50:	0c 94 65 00 	jmp	0xca	; 0xca <__bad_interrupt>
      54:	0c 94 65 00 	jmp	0xca	; 0xca <__bad_interrupt>
      58:	0c 94 65 00 	jmp	0xca	; 0xca <__bad_interrupt>
      5c:	0c 94 65 00 	jmp	0xca	; 0xca <__bad_interrupt>
      60:	0c 94 65 00 	jmp	0xca	; 0xca <__bad_interrupt>
      64:	0c 94 65 00 	jmp	0xca	; 0xca <__bad_interrupt>
      68:	0c 94 65 00 	jmp	0xca	; 0xca <__bad_interrupt>
      6c:	0c 94 65 00 	jmp	0xca	; 0xca <__bad_interrupt>
      70:	0c 94 65 00 	jmp	0xca	; 0xca <__bad_interrupt>
      74:	0c 94 65 00 	jmp	0xca	; 0xca <__bad_interrupt>
      78:	0c 94 65 00 	jmp	0xca	; 0xca <__bad_interrupt>
      7c:	0c 94 65 00 	jmp	0xca	; 0xca <__bad_interrupt>
      80:	0c 94 65 00 	jmp	0xca	; 0xca <__bad_interrupt>
      84:	0c 94 65 00 	jmp	0xca	; 0xca <__bad_interrupt>
      88:	0c 94 65 00 	jmp	0xca	; 0xca <__bad_interrupt>

0000008c <__ctors_end>:
      8c:	11 24       	eor	r1, r1
      8e:	1f be       	out	0x3f, r1	; 63
      90:	cf ef       	ldi	r28, 0xFF	; 255
      92:	d0 e1       	ldi	r29, 0x10	; 16
      94:	de bf       	out	0x3e, r29	; 62
      96:	cd bf       	out	0x3d, r28	; 61

00000098 <__do_copy_data>:
      98:	11 e0       	ldi	r17, 0x01	; 1
      9a:	a0 e0       	ldi	r26, 0x00	; 0
      9c:	b1 e0       	ldi	r27, 0x01	; 1
      9e:	e0 e6       	ldi	r30, 0x60	; 96
      a0:	f5 e2       	ldi	r31, 0x25	; 37
      a2:	00 e0       	ldi	r16, 0x00	; 0
      a4:	0b bf       	out	0x3b, r16	; 59
      a6:	02 c0       	rjmp	.+4      	; 0xac <__do_copy_data+0x14>
      a8:	07 90       	elpm	r0, Z+
      aa:	0d 92       	st	X+, r0
      ac:	ac 30       	cpi	r26, 0x0C	; 12
      ae:	b1 07       	cpc	r27, r17
      b0:	d9 f7       	brne	.-10     	; 0xa8 <__do_copy_data+0x10>

000000b2 <__do_clear_bss>:
      b2:	11 e0       	ldi	r17, 0x01	; 1
      b4:	ac e0       	ldi	r26, 0x0C	; 12
      b6:	b1 e0       	ldi	r27, 0x01	; 1
      b8:	01 c0       	rjmp	.+2      	; 0xbc <.do_clear_bss_start>

000000ba <.do_clear_bss_loop>:
      ba:	1d 92       	st	X+, r1

000000bc <.do_clear_bss_start>:
      bc:	a4 31       	cpi	r26, 0x14	; 20
      be:	b1 07       	cpc	r27, r17
      c0:	e1 f7       	brne	.-8      	; 0xba <.do_clear_bss_loop>
      c2:	0e 94 a2 0b 	call	0x1744	; 0x1744 <main>
      c6:	0c 94 ae 12 	jmp	0x255c	; 0x255c <_exit>

000000ca <__bad_interrupt>:
      ca:	0c 94 00 00 	jmp	0	; 0x0 <__vectors>

000000ce <LCD_Command>:
#define DISPLAY_CLEAR	0x01
#define CURSOR_HOME		0x02

//Command Write
void LCD_Command(unsigned char data)
{
      ce:	0f 93       	push	r16
      d0:	1f 93       	push	r17
      d2:	df 93       	push	r29
      d4:	cf 93       	push	r28
      d6:	cd b7       	in	r28, 0x3d	; 61
      d8:	de b7       	in	r29, 0x3e	; 62
      da:	ef 97       	sbiw	r28, 0x3f	; 63
      dc:	0f b6       	in	r0, 0x3f	; 63
      de:	f8 94       	cli
      e0:	de bf       	out	0x3e, r29	; 62
      e2:	0f be       	out	0x3f, r0	; 63
      e4:	cd bf       	out	0x3d, r28	; 61
      e6:	8f af       	std	Y+63, r24	; 0x3f
	LCD_STRU = 0x00;
      e8:	85 e3       	ldi	r24, 0x35	; 53
      ea:	90 e0       	ldi	r25, 0x00	; 0
      ec:	fc 01       	movw	r30, r24
      ee:	10 82       	st	Z, r1
	LCD_DATA = data;
      f0:	8b e3       	ldi	r24, 0x3B	; 59
      f2:	90 e0       	ldi	r25, 0x00	; 0
      f4:	2f ad       	ldd	r18, Y+63	; 0x3f
      f6:	fc 01       	movw	r30, r24
      f8:	20 83       	st	Z, r18
      fa:	80 e0       	ldi	r24, 0x00	; 0
      fc:	90 e0       	ldi	r25, 0x00	; 0
      fe:	a0 e8       	ldi	r26, 0x80	; 128
     100:	bf e3       	ldi	r27, 0x3F	; 63
     102:	89 83       	std	Y+1, r24	; 0x01
     104:	9a 83       	std	Y+2, r25	; 0x02
     106:	ab 83       	std	Y+3, r26	; 0x03
     108:	bc 83       	std	Y+4, r27	; 0x04
	#endif

	__builtin_avr_delay_cycles(__ticks_dc);

#elif !__HAS_DELAY_CYCLES || (__HAS_DELAY_CYCLES && !defined(__OPTIMIZE__)) || defined (__DELAY_BACKWARD_COMPATIBLE__)
	__tmp = ((F_CPU) / 3e6) * __us;
     10a:	69 81       	ldd	r22, Y+1	; 0x01
     10c:	7a 81       	ldd	r23, Y+2	; 0x02
     10e:	8b 81       	ldd	r24, Y+3	; 0x03
     110:	9c 81       	ldd	r25, Y+4	; 0x04
     112:	2b ea       	ldi	r18, 0xAB	; 171
     114:	3a ea       	ldi	r19, 0xAA	; 170
     116:	4a ea       	ldi	r20, 0xAA	; 170
     118:	50 e4       	ldi	r21, 0x40	; 64
     11a:	0e 94 51 0e 	call	0x1ca2	; 0x1ca2 <__mulsf3>
     11e:	dc 01       	movw	r26, r24
     120:	cb 01       	movw	r24, r22
     122:	8d 83       	std	Y+5, r24	; 0x05
     124:	9e 83       	std	Y+6, r25	; 0x06
     126:	af 83       	std	Y+7, r26	; 0x07
     128:	b8 87       	std	Y+8, r27	; 0x08
	if (__tmp < 1.0)
     12a:	11 e0       	ldi	r17, 0x01	; 1
     12c:	6d 81       	ldd	r22, Y+5	; 0x05
     12e:	7e 81       	ldd	r23, Y+6	; 0x06
     130:	8f 81       	ldd	r24, Y+7	; 0x07
     132:	98 85       	ldd	r25, Y+8	; 0x08
     134:	20 e0       	ldi	r18, 0x00	; 0
     136:	30 e0       	ldi	r19, 0x00	; 0
     138:	40 e8       	ldi	r20, 0x80	; 128
     13a:	5f e3       	ldi	r21, 0x3F	; 63
     13c:	0e 94 59 10 	call	0x20b2	; 0x20b2 <__ltsf2>
     140:	88 23       	and	r24, r24
     142:	0c f0       	brlt	.+2      	; 0x146 <LCD_Command+0x78>
     144:	10 e0       	ldi	r17, 0x00	; 0
     146:	11 23       	and	r17, r17
     148:	19 f0       	breq	.+6      	; 0x150 <LCD_Command+0x82>
		__ticks = 1;
     14a:	81 e0       	ldi	r24, 0x01	; 1
     14c:	89 87       	std	Y+9, r24	; 0x09
     14e:	a3 c0       	rjmp	.+326    	; 0x296 <LCD_Command+0x1c8>
	else if (__tmp > 255)
     150:	11 e0       	ldi	r17, 0x01	; 1
     152:	6d 81       	ldd	r22, Y+5	; 0x05
     154:	7e 81       	ldd	r23, Y+6	; 0x06
     156:	8f 81       	ldd	r24, Y+7	; 0x07
     158:	98 85       	ldd	r25, Y+8	; 0x08
     15a:	20 e0       	ldi	r18, 0x00	; 0
     15c:	30 e0       	ldi	r19, 0x00	; 0
     15e:	4f e7       	ldi	r20, 0x7F	; 127
     160:	53 e4       	ldi	r21, 0x43	; 67
     162:	0e 94 f9 0f 	call	0x1ff2	; 0x1ff2 <__gtsf2>
     166:	18 16       	cp	r1, r24
     168:	0c f0       	brlt	.+2      	; 0x16c <LCD_Command+0x9e>
     16a:	10 e0       	ldi	r17, 0x00	; 0
     16c:	11 23       	and	r17, r17
     16e:	09 f4       	brne	.+2      	; 0x172 <LCD_Command+0xa4>
     170:	89 c0       	rjmp	.+274    	; 0x284 <LCD_Command+0x1b6>
	{
		_delay_ms(__us / 1000.0);
     172:	69 81       	ldd	r22, Y+1	; 0x01
     174:	7a 81       	ldd	r23, Y+2	; 0x02
     176:	8b 81       	ldd	r24, Y+3	; 0x03
     178:	9c 81       	ldd	r25, Y+4	; 0x04
     17a:	20 e0       	ldi	r18, 0x00	; 0
     17c:	30 e0       	ldi	r19, 0x00	; 0
     17e:	4a e7       	ldi	r20, 0x7A	; 122
     180:	54 e4       	ldi	r21, 0x44	; 68
     182:	0e 94 4b 0f 	call	0x1e96	; 0x1e96 <__divsf3>
     186:	dc 01       	movw	r26, r24
     188:	cb 01       	movw	r24, r22
     18a:	8a 87       	std	Y+10, r24	; 0x0a
     18c:	9b 87       	std	Y+11, r25	; 0x0b
     18e:	ac 87       	std	Y+12, r26	; 0x0c
     190:	bd 87       	std	Y+13, r27	; 0x0d
	#endif

	__builtin_avr_delay_cycles(__ticks_dc);

#elif !__HAS_DELAY_CYCLES || (__HAS_DELAY_CYCLES && !defined(__OPTIMIZE__)) || defined (__DELAY_BACKWARD_COMPATIBLE__)
	__tmp = ((F_CPU) / 4e3) * __ms;
     192:	6a 85       	ldd	r22, Y+10	; 0x0a
     194:	7b 85       	ldd	r23, Y+11	; 0x0b
     196:	8c 85       	ldd	r24, Y+12	; 0x0c
     198:	9d 85       	ldd	r25, Y+13	; 0x0d
     19a:	20 e0       	ldi	r18, 0x00	; 0
     19c:	30 e0       	ldi	r19, 0x00	; 0
     19e:	4a e7       	ldi	r20, 0x7A	; 122
     1a0:	55 e4       	ldi	r21, 0x45	; 69
     1a2:	0e 94 51 0e 	call	0x1ca2	; 0x1ca2 <__mulsf3>
     1a6:	dc 01       	movw	r26, r24
     1a8:	cb 01       	movw	r24, r22
     1aa:	8e 87       	std	Y+14, r24	; 0x0e
     1ac:	9f 87       	std	Y+15, r25	; 0x0f
     1ae:	a8 8b       	std	Y+16, r26	; 0x10
     1b0:	b9 8b       	std	Y+17, r27	; 0x11
	if (__tmp < 1.0)
     1b2:	11 e0       	ldi	r17, 0x01	; 1
     1b4:	6e 85       	ldd	r22, Y+14	; 0x0e
     1b6:	7f 85       	ldd	r23, Y+15	; 0x0f
     1b8:	88 89       	ldd	r24, Y+16	; 0x10
     1ba:	99 89       	ldd	r25, Y+17	; 0x11
     1bc:	20 e0       	ldi	r18, 0x00	; 0
     1be:	30 e0       	ldi	r19, 0x00	; 0
     1c0:	40 e8       	ldi	r20, 0x80	; 128
     1c2:	5f e3       	ldi	r21, 0x3F	; 63
     1c4:	0e 94 59 10 	call	0x20b2	; 0x20b2 <__ltsf2>
     1c8:	88 23       	and	r24, r24
     1ca:	0c f0       	brlt	.+2      	; 0x1ce <LCD_Command+0x100>
     1cc:	10 e0       	ldi	r17, 0x00	; 0
     1ce:	11 23       	and	r17, r17
     1d0:	29 f0       	breq	.+10     	; 0x1dc <LCD_Command+0x10e>
		__ticks = 1;
     1d2:	81 e0       	ldi	r24, 0x01	; 1
     1d4:	90 e0       	ldi	r25, 0x00	; 0
     1d6:	9b 8b       	std	Y+19, r25	; 0x13
     1d8:	8a 8b       	std	Y+18, r24	; 0x12
     1da:	46 c0       	rjmp	.+140    	; 0x268 <LCD_Command+0x19a>
	else if (__tmp > 65535)
     1dc:	11 e0       	ldi	r17, 0x01	; 1
     1de:	6e 85       	ldd	r22, Y+14	; 0x0e
     1e0:	7f 85       	ldd	r23, Y+15	; 0x0f
     1e2:	88 89       	ldd	r24, Y+16	; 0x10
     1e4:	99 89       	ldd	r25, Y+17	; 0x11
     1e6:	20 e0       	ldi	r18, 0x00	; 0
     1e8:	3f ef       	ldi	r19, 0xFF	; 255
     1ea:	4f e7       	ldi	r20, 0x7F	; 127
     1ec:	57 e4       	ldi	r21, 0x47	; 71
     1ee:	0e 94 f9 0f 	call	0x1ff2	; 0x1ff2 <__gtsf2>
     1f2:	18 16       	cp	r1, r24
     1f4:	0c f0       	brlt	.+2      	; 0x1f8 <LCD_Command+0x12a>
     1f6:	10 e0       	ldi	r17, 0x00	; 0
     1f8:	11 23       	and	r17, r17
     1fa:	61 f1       	breq	.+88     	; 0x254 <LCD_Command+0x186>
	{
		//	__ticks = requested delay in 1/10 ms
		__ticks = (uint16_t) (__ms * 10.0);
     1fc:	6a 85       	ldd	r22, Y+10	; 0x0a
     1fe:	7b 85       	ldd	r23, Y+11	; 0x0b
     200:	8c 85       	ldd	r24, Y+12	; 0x0c
     202:	9d 85       	ldd	r25, Y+13	; 0x0d
     204:	20 e0       	ldi	r18, 0x00	; 0
     206:	30 e0       	ldi	r19, 0x00	; 0
     208:	40 e2       	ldi	r20, 0x20	; 32
     20a:	51 e4       	ldi	r21, 0x41	; 65
     20c:	0e 94 51 0e 	call	0x1ca2	; 0x1ca2 <__mulsf3>
     210:	dc 01       	movw	r26, r24
     212:	cb 01       	movw	r24, r22
     214:	bc 01       	movw	r22, r24
     216:	cd 01       	movw	r24, r26
     218:	0e 94 7d 0c 	call	0x18fa	; 0x18fa <__fixunssfsi>
     21c:	dc 01       	movw	r26, r24
     21e:	cb 01       	movw	r24, r22
     220:	9b 8b       	std	Y+19, r25	; 0x13
     222:	8a 8b       	std	Y+18, r24	; 0x12
     224:	12 c0       	rjmp	.+36     	; 0x24a <LCD_Command+0x17c>
     226:	80 e9       	ldi	r24, 0x90	; 144
     228:	91 e0       	ldi	r25, 0x01	; 1
     22a:	9d 8b       	std	Y+21, r25	; 0x15
     22c:	8c 8b       	std	Y+20, r24	; 0x14
    milliseconds can be achieved.
 */
void
_delay_loop_2(uint16_t __count)
{
	__asm__ volatile (
     22e:	8c 89       	ldd	r24, Y+20	; 0x14
     230:	9d 89       	ldd	r25, Y+21	; 0x15
     232:	8c 01       	movw	r16, r24
     234:	c8 01       	movw	r24, r16
     236:	01 97       	sbiw	r24, 0x01	; 1
     238:	f1 f7       	brne	.-4      	; 0x236 <LCD_Command+0x168>
     23a:	8c 01       	movw	r16, r24
     23c:	1d 8b       	std	Y+21, r17	; 0x15
     23e:	0c 8b       	std	Y+20, r16	; 0x14
		while(__ticks)
		{
			// wait 1/10 ms
			_delay_loop_2(((F_CPU) / 4e3) / 10);
			__ticks --;
     240:	8a 89       	ldd	r24, Y+18	; 0x12
     242:	9b 89       	ldd	r25, Y+19	; 0x13
     244:	01 97       	sbiw	r24, 0x01	; 1
     246:	9b 8b       	std	Y+19, r25	; 0x13
     248:	8a 8b       	std	Y+18, r24	; 0x12
		__ticks = 1;
	else if (__tmp > 65535)
	{
		//	__ticks = requested delay in 1/10 ms
		__ticks = (uint16_t) (__ms * 10.0);
		while(__ticks)
     24a:	8a 89       	ldd	r24, Y+18	; 0x12
     24c:	9b 89       	ldd	r25, Y+19	; 0x13
     24e:	00 97       	sbiw	r24, 0x00	; 0
     250:	51 f7       	brne	.-44     	; 0x226 <LCD_Command+0x158>
     252:	28 c0       	rjmp	.+80     	; 0x2a4 <LCD_Command+0x1d6>
			__ticks --;
		}
		return;
	}
	else
		__ticks = (uint16_t)__tmp;
     254:	6e 85       	ldd	r22, Y+14	; 0x0e
     256:	7f 85       	ldd	r23, Y+15	; 0x0f
     258:	88 89       	ldd	r24, Y+16	; 0x10
     25a:	99 89       	ldd	r25, Y+17	; 0x11
     25c:	0e 94 7d 0c 	call	0x18fa	; 0x18fa <__fixunssfsi>
     260:	dc 01       	movw	r26, r24
     262:	cb 01       	movw	r24, r22
     264:	9b 8b       	std	Y+19, r25	; 0x13
     266:	8a 8b       	std	Y+18, r24	; 0x12
     268:	8a 89       	ldd	r24, Y+18	; 0x12
     26a:	9b 89       	ldd	r25, Y+19	; 0x13
     26c:	9f 8b       	std	Y+23, r25	; 0x17
     26e:	8e 8b       	std	Y+22, r24	; 0x16
     270:	8e 89       	ldd	r24, Y+22	; 0x16
     272:	9f 89       	ldd	r25, Y+23	; 0x17
     274:	8c 01       	movw	r16, r24
     276:	f8 01       	movw	r30, r16
     278:	31 97       	sbiw	r30, 0x01	; 1
     27a:	f1 f7       	brne	.-4      	; 0x278 <LCD_Command+0x1aa>
     27c:	8f 01       	movw	r16, r30
     27e:	1f 8b       	std	Y+23, r17	; 0x17
     280:	0e 8b       	std	Y+22, r16	; 0x16
     282:	10 c0       	rjmp	.+32     	; 0x2a4 <LCD_Command+0x1d6>
	{
		_delay_ms(__us / 1000.0);
		return;
	}
	else
		__ticks = (uint8_t)__tmp;
     284:	6d 81       	ldd	r22, Y+5	; 0x05
     286:	7e 81       	ldd	r23, Y+6	; 0x06
     288:	8f 81       	ldd	r24, Y+7	; 0x07
     28a:	98 85       	ldd	r25, Y+8	; 0x08
     28c:	0e 94 7d 0c 	call	0x18fa	; 0x18fa <__fixunssfsi>
     290:	dc 01       	movw	r26, r24
     292:	cb 01       	movw	r24, r22
     294:	89 87       	std	Y+9, r24	; 0x09
     296:	89 85       	ldd	r24, Y+9	; 0x09
     298:	88 8f       	std	Y+24, r24	; 0x18
    can be achieved.
*/
void
_delay_loop_1(uint8_t __count)
{
	__asm__ volatile (
     29a:	88 8d       	ldd	r24, Y+24	; 0x18
     29c:	18 2f       	mov	r17, r24
     29e:	1a 95       	dec	r17
     2a0:	f1 f7       	brne	.-4      	; 0x29e <LCD_Command+0x1d0>
     2a2:	18 8f       	std	Y+24, r17	; 0x18
	_delay_us(1);

	LCD_STRU |= ENABLE_BIT;
     2a4:	85 e3       	ldi	r24, 0x35	; 53
     2a6:	90 e0       	ldi	r25, 0x00	; 0
     2a8:	25 e3       	ldi	r18, 0x35	; 53
     2aa:	30 e0       	ldi	r19, 0x00	; 0
     2ac:	f9 01       	movw	r30, r18
     2ae:	20 81       	ld	r18, Z
     2b0:	24 60       	ori	r18, 0x04	; 4
     2b2:	fc 01       	movw	r30, r24
     2b4:	20 83       	st	Z, r18
     2b6:	80 e0       	ldi	r24, 0x00	; 0
     2b8:	90 e0       	ldi	r25, 0x00	; 0
     2ba:	a0 e2       	ldi	r26, 0x20	; 32
     2bc:	b1 e4       	ldi	r27, 0x41	; 65
     2be:	89 8f       	std	Y+25, r24	; 0x19
     2c0:	9a 8f       	std	Y+26, r25	; 0x1a
     2c2:	ab 8f       	std	Y+27, r26	; 0x1b
     2c4:	bc 8f       	std	Y+28, r27	; 0x1c
	#endif

	__builtin_avr_delay_cycles(__ticks_dc);

#elif !__HAS_DELAY_CYCLES || (__HAS_DELAY_CYCLES && !defined(__OPTIMIZE__)) || defined (__DELAY_BACKWARD_COMPATIBLE__)
	__tmp = ((F_CPU) / 3e6) * __us;
     2c6:	69 8d       	ldd	r22, Y+25	; 0x19
     2c8:	7a 8d       	ldd	r23, Y+26	; 0x1a
     2ca:	8b 8d       	ldd	r24, Y+27	; 0x1b
     2cc:	9c 8d       	ldd	r25, Y+28	; 0x1c
     2ce:	2b ea       	ldi	r18, 0xAB	; 171
     2d0:	3a ea       	ldi	r19, 0xAA	; 170
     2d2:	4a ea       	ldi	r20, 0xAA	; 170
     2d4:	50 e4       	ldi	r21, 0x40	; 64
     2d6:	0e 94 51 0e 	call	0x1ca2	; 0x1ca2 <__mulsf3>
     2da:	dc 01       	movw	r26, r24
     2dc:	cb 01       	movw	r24, r22
     2de:	8d 8f       	std	Y+29, r24	; 0x1d
     2e0:	9e 8f       	std	Y+30, r25	; 0x1e
     2e2:	af 8f       	std	Y+31, r26	; 0x1f
     2e4:	b8 a3       	std	Y+32, r27	; 0x20
	if (__tmp < 1.0)
     2e6:	11 e0       	ldi	r17, 0x01	; 1
     2e8:	6d 8d       	ldd	r22, Y+29	; 0x1d
     2ea:	7e 8d       	ldd	r23, Y+30	; 0x1e
     2ec:	8f 8d       	ldd	r24, Y+31	; 0x1f
     2ee:	98 a1       	ldd	r25, Y+32	; 0x20
     2f0:	20 e0       	ldi	r18, 0x00	; 0
     2f2:	30 e0       	ldi	r19, 0x00	; 0
     2f4:	40 e8       	ldi	r20, 0x80	; 128
     2f6:	5f e3       	ldi	r21, 0x3F	; 63
     2f8:	0e 94 59 10 	call	0x20b2	; 0x20b2 <__ltsf2>
     2fc:	88 23       	and	r24, r24
     2fe:	0c f0       	brlt	.+2      	; 0x302 <LCD_Command+0x234>
     300:	10 e0       	ldi	r17, 0x00	; 0
     302:	11 23       	and	r17, r17
     304:	19 f0       	breq	.+6      	; 0x30c <LCD_Command+0x23e>
		__ticks = 1;
     306:	81 e0       	ldi	r24, 0x01	; 1
     308:	89 a3       	std	Y+33, r24	; 0x21
     30a:	a3 c0       	rjmp	.+326    	; 0x452 <LCD_Command+0x384>
	else if (__tmp > 255)
     30c:	11 e0       	ldi	r17, 0x01	; 1
     30e:	6d 8d       	ldd	r22, Y+29	; 0x1d
     310:	7e 8d       	ldd	r23, Y+30	; 0x1e
     312:	8f 8d       	ldd	r24, Y+31	; 0x1f
     314:	98 a1       	ldd	r25, Y+32	; 0x20
     316:	20 e0       	ldi	r18, 0x00	; 0
     318:	30 e0       	ldi	r19, 0x00	; 0
     31a:	4f e7       	ldi	r20, 0x7F	; 127
     31c:	53 e4       	ldi	r21, 0x43	; 67
     31e:	0e 94 f9 0f 	call	0x1ff2	; 0x1ff2 <__gtsf2>
     322:	18 16       	cp	r1, r24
     324:	0c f0       	brlt	.+2      	; 0x328 <LCD_Command+0x25a>
     326:	10 e0       	ldi	r17, 0x00	; 0
     328:	11 23       	and	r17, r17
     32a:	09 f4       	brne	.+2      	; 0x32e <LCD_Command+0x260>
     32c:	89 c0       	rjmp	.+274    	; 0x440 <LCD_Command+0x372>
	{
		_delay_ms(__us / 1000.0);
     32e:	69 8d       	ldd	r22, Y+25	; 0x19
     330:	7a 8d       	ldd	r23, Y+26	; 0x1a
     332:	8b 8d       	ldd	r24, Y+27	; 0x1b
     334:	9c 8d       	ldd	r25, Y+28	; 0x1c
     336:	20 e0       	ldi	r18, 0x00	; 0
     338:	30 e0       	ldi	r19, 0x00	; 0
     33a:	4a e7       	ldi	r20, 0x7A	; 122
     33c:	54 e4       	ldi	r21, 0x44	; 68
     33e:	0e 94 4b 0f 	call	0x1e96	; 0x1e96 <__divsf3>
     342:	dc 01       	movw	r26, r24
     344:	cb 01       	movw	r24, r22
     346:	8a a3       	std	Y+34, r24	; 0x22
     348:	9b a3       	std	Y+35, r25	; 0x23
     34a:	ac a3       	std	Y+36, r26	; 0x24
     34c:	bd a3       	std	Y+37, r27	; 0x25
	#endif

	__builtin_avr_delay_cycles(__ticks_dc);

#elif !__HAS_DELAY_CYCLES || (__HAS_DELAY_CYCLES && !defined(__OPTIMIZE__)) || defined (__DELAY_BACKWARD_COMPATIBLE__)
	__tmp = ((F_CPU) / 4e3) * __ms;
     34e:	6a a1       	ldd	r22, Y+34	; 0x22
     350:	7b a1       	ldd	r23, Y+35	; 0x23
     352:	8c a1       	ldd	r24, Y+36	; 0x24
     354:	9d a1       	ldd	r25, Y+37	; 0x25
     356:	20 e0       	ldi	r18, 0x00	; 0
     358:	30 e0       	ldi	r19, 0x00	; 0
     35a:	4a e7       	ldi	r20, 0x7A	; 122
     35c:	55 e4       	ldi	r21, 0x45	; 69
     35e:	0e 94 51 0e 	call	0x1ca2	; 0x1ca2 <__mulsf3>
     362:	dc 01       	movw	r26, r24
     364:	cb 01       	movw	r24, r22
     366:	8e a3       	std	Y+38, r24	; 0x26
     368:	9f a3       	std	Y+39, r25	; 0x27
     36a:	a8 a7       	std	Y+40, r26	; 0x28
     36c:	b9 a7       	std	Y+41, r27	; 0x29
	if (__tmp < 1.0)
     36e:	11 e0       	ldi	r17, 0x01	; 1
     370:	6e a1       	ldd	r22, Y+38	; 0x26
     372:	7f a1       	ldd	r23, Y+39	; 0x27
     374:	88 a5       	ldd	r24, Y+40	; 0x28
     376:	99 a5       	ldd	r25, Y+41	; 0x29
     378:	20 e0       	ldi	r18, 0x00	; 0
     37a:	30 e0       	ldi	r19, 0x00	; 0
     37c:	40 e8       	ldi	r20, 0x80	; 128
     37e:	5f e3       	ldi	r21, 0x3F	; 63
     380:	0e 94 59 10 	call	0x20b2	; 0x20b2 <__ltsf2>
     384:	88 23       	and	r24, r24
     386:	0c f0       	brlt	.+2      	; 0x38a <LCD_Command+0x2bc>
     388:	10 e0       	ldi	r17, 0x00	; 0
     38a:	11 23       	and	r17, r17
     38c:	29 f0       	breq	.+10     	; 0x398 <LCD_Command+0x2ca>
		__ticks = 1;
     38e:	81 e0       	ldi	r24, 0x01	; 1
     390:	90 e0       	ldi	r25, 0x00	; 0
     392:	9b a7       	std	Y+43, r25	; 0x2b
     394:	8a a7       	std	Y+42, r24	; 0x2a
     396:	46 c0       	rjmp	.+140    	; 0x424 <LCD_Command+0x356>
	else if (__tmp > 65535)
     398:	11 e0       	ldi	r17, 0x01	; 1
     39a:	6e a1       	ldd	r22, Y+38	; 0x26
     39c:	7f a1       	ldd	r23, Y+39	; 0x27
     39e:	88 a5       	ldd	r24, Y+40	; 0x28
     3a0:	99 a5       	ldd	r25, Y+41	; 0x29
     3a2:	20 e0       	ldi	r18, 0x00	; 0
     3a4:	3f ef       	ldi	r19, 0xFF	; 255
     3a6:	4f e7       	ldi	r20, 0x7F	; 127
     3a8:	57 e4       	ldi	r21, 0x47	; 71
     3aa:	0e 94 f9 0f 	call	0x1ff2	; 0x1ff2 <__gtsf2>
     3ae:	18 16       	cp	r1, r24
     3b0:	0c f0       	brlt	.+2      	; 0x3b4 <LCD_Command+0x2e6>
     3b2:	10 e0       	ldi	r17, 0x00	; 0
     3b4:	11 23       	and	r17, r17
     3b6:	61 f1       	breq	.+88     	; 0x410 <LCD_Command+0x342>
	{
		//	__ticks = requested delay in 1/10 ms
		__ticks = (uint16_t) (__ms * 10.0);
     3b8:	6a a1       	ldd	r22, Y+34	; 0x22
     3ba:	7b a1       	ldd	r23, Y+35	; 0x23
     3bc:	8c a1       	ldd	r24, Y+36	; 0x24
     3be:	9d a1       	ldd	r25, Y+37	; 0x25
     3c0:	20 e0       	ldi	r18, 0x00	; 0
     3c2:	30 e0       	ldi	r19, 0x00	; 0
     3c4:	40 e2       	ldi	r20, 0x20	; 32
     3c6:	51 e4       	ldi	r21, 0x41	; 65
     3c8:	0e 94 51 0e 	call	0x1ca2	; 0x1ca2 <__mulsf3>
     3cc:	dc 01       	movw	r26, r24
     3ce:	cb 01       	movw	r24, r22
     3d0:	bc 01       	movw	r22, r24
     3d2:	cd 01       	movw	r24, r26
     3d4:	0e 94 7d 0c 	call	0x18fa	; 0x18fa <__fixunssfsi>
     3d8:	dc 01       	movw	r26, r24
     3da:	cb 01       	movw	r24, r22
     3dc:	9b a7       	std	Y+43, r25	; 0x2b
     3de:	8a a7       	std	Y+42, r24	; 0x2a
     3e0:	12 c0       	rjmp	.+36     	; 0x406 <LCD_Command+0x338>
     3e2:	80 e9       	ldi	r24, 0x90	; 144
     3e4:	91 e0       	ldi	r25, 0x01	; 1
     3e6:	9d a7       	std	Y+45, r25	; 0x2d
     3e8:	8c a7       	std	Y+44, r24	; 0x2c
    milliseconds can be achieved.
 */
void
_delay_loop_2(uint16_t __count)
{
	__asm__ volatile (
     3ea:	8c a5       	ldd	r24, Y+44	; 0x2c
     3ec:	9d a5       	ldd	r25, Y+45	; 0x2d
     3ee:	8c 01       	movw	r16, r24
     3f0:	c8 01       	movw	r24, r16
     3f2:	01 97       	sbiw	r24, 0x01	; 1
     3f4:	f1 f7       	brne	.-4      	; 0x3f2 <LCD_Command+0x324>
     3f6:	8c 01       	movw	r16, r24
     3f8:	1d a7       	std	Y+45, r17	; 0x2d
     3fa:	0c a7       	std	Y+44, r16	; 0x2c
		while(__ticks)
		{
			// wait 1/10 ms
			_delay_loop_2(((F_CPU) / 4e3) / 10);
			__ticks --;
     3fc:	8a a5       	ldd	r24, Y+42	; 0x2a
     3fe:	9b a5       	ldd	r25, Y+43	; 0x2b
     400:	01 97       	sbiw	r24, 0x01	; 1
     402:	9b a7       	std	Y+43, r25	; 0x2b
     404:	8a a7       	std	Y+42, r24	; 0x2a
		__ticks = 1;
	else if (__tmp > 65535)
	{
		//	__ticks = requested delay in 1/10 ms
		__ticks = (uint16_t) (__ms * 10.0);
		while(__ticks)
     406:	8a a5       	ldd	r24, Y+42	; 0x2a
     408:	9b a5       	ldd	r25, Y+43	; 0x2b
     40a:	00 97       	sbiw	r24, 0x00	; 0
     40c:	51 f7       	brne	.-44     	; 0x3e2 <LCD_Command+0x314>
     40e:	28 c0       	rjmp	.+80     	; 0x460 <LCD_Command+0x392>
			__ticks --;
		}
		return;
	}
	else
		__ticks = (uint16_t)__tmp;
     410:	6e a1       	ldd	r22, Y+38	; 0x26
     412:	7f a1       	ldd	r23, Y+39	; 0x27
     414:	88 a5       	ldd	r24, Y+40	; 0x28
     416:	99 a5       	ldd	r25, Y+41	; 0x29
     418:	0e 94 7d 0c 	call	0x18fa	; 0x18fa <__fixunssfsi>
     41c:	dc 01       	movw	r26, r24
     41e:	cb 01       	movw	r24, r22
     420:	9b a7       	std	Y+43, r25	; 0x2b
     422:	8a a7       	std	Y+42, r24	; 0x2a
     424:	8a a5       	ldd	r24, Y+42	; 0x2a
     426:	9b a5       	ldd	r25, Y+43	; 0x2b
     428:	9f a7       	std	Y+47, r25	; 0x2f
     42a:	8e a7       	std	Y+46, r24	; 0x2e
     42c:	8e a5       	ldd	r24, Y+46	; 0x2e
     42e:	9f a5       	ldd	r25, Y+47	; 0x2f
     430:	8c 01       	movw	r16, r24
     432:	f8 01       	movw	r30, r16
     434:	31 97       	sbiw	r30, 0x01	; 1
     436:	f1 f7       	brne	.-4      	; 0x434 <LCD_Command+0x366>
     438:	8f 01       	movw	r16, r30
     43a:	1f a7       	std	Y+47, r17	; 0x2f
     43c:	0e a7       	std	Y+46, r16	; 0x2e
     43e:	10 c0       	rjmp	.+32     	; 0x460 <LCD_Command+0x392>
	{
		_delay_ms(__us / 1000.0);
		return;
	}
	else
		__ticks = (uint8_t)__tmp;
     440:	6d 8d       	ldd	r22, Y+29	; 0x1d
     442:	7e 8d       	ldd	r23, Y+30	; 0x1e
     444:	8f 8d       	ldd	r24, Y+31	; 0x1f
     446:	98 a1       	ldd	r25, Y+32	; 0x20
     448:	0e 94 7d 0c 	call	0x18fa	; 0x18fa <__fixunssfsi>
     44c:	dc 01       	movw	r26, r24
     44e:	cb 01       	movw	r24, r22
     450:	89 a3       	std	Y+33, r24	; 0x21
     452:	89 a1       	ldd	r24, Y+33	; 0x21
     454:	88 ab       	std	Y+48, r24	; 0x30
    can be achieved.
*/
void
_delay_loop_1(uint8_t __count)
{
	__asm__ volatile (
     456:	88 a9       	ldd	r24, Y+48	; 0x30
     458:	18 2f       	mov	r17, r24
     45a:	1a 95       	dec	r17
     45c:	f1 f7       	brne	.-4      	; 0x45a <LCD_Command+0x38c>
     45e:	18 ab       	std	Y+48, r17	; 0x30
	_delay_us(10);

	LCD_STRU = 0;
     460:	85 e3       	ldi	r24, 0x35	; 53
     462:	90 e0       	ldi	r25, 0x00	; 0
     464:	fc 01       	movw	r30, r24
     466:	10 82       	st	Z, r1
     468:	80 e0       	ldi	r24, 0x00	; 0
     46a:	90 e0       	ldi	r25, 0x00	; 0
     46c:	a0 e8       	ldi	r26, 0x80	; 128
     46e:	bf e3       	ldi	r27, 0x3F	; 63
     470:	89 ab       	std	Y+49, r24	; 0x31
     472:	9a ab       	std	Y+50, r25	; 0x32
     474:	ab ab       	std	Y+51, r26	; 0x33
     476:	bc ab       	std	Y+52, r27	; 0x34
	#endif

	__builtin_avr_delay_cycles(__ticks_dc);

#elif !__HAS_DELAY_CYCLES || (__HAS_DELAY_CYCLES && !defined(__OPTIMIZE__)) || defined (__DELAY_BACKWARD_COMPATIBLE__)
	__tmp = ((F_CPU) / 4e3) * __ms;
     478:	69 a9       	ldd	r22, Y+49	; 0x31
     47a:	7a a9       	ldd	r23, Y+50	; 0x32
     47c:	8b a9       	ldd	r24, Y+51	; 0x33
     47e:	9c a9       	ldd	r25, Y+52	; 0x34
     480:	20 e0       	ldi	r18, 0x00	; 0
     482:	30 e0       	ldi	r19, 0x00	; 0
     484:	4a e7       	ldi	r20, 0x7A	; 122
     486:	55 e4       	ldi	r21, 0x45	; 69
     488:	0e 94 51 0e 	call	0x1ca2	; 0x1ca2 <__mulsf3>
     48c:	dc 01       	movw	r26, r24
     48e:	cb 01       	movw	r24, r22
     490:	8d ab       	std	Y+53, r24	; 0x35
     492:	9e ab       	std	Y+54, r25	; 0x36
     494:	af ab       	std	Y+55, r26	; 0x37
     496:	b8 af       	std	Y+56, r27	; 0x38
	if (__tmp < 1.0)
     498:	11 e0       	ldi	r17, 0x01	; 1
     49a:	6d a9       	ldd	r22, Y+53	; 0x35
     49c:	7e a9       	ldd	r23, Y+54	; 0x36
     49e:	8f a9       	ldd	r24, Y+55	; 0x37
     4a0:	98 ad       	ldd	r25, Y+56	; 0x38
     4a2:	20 e0       	ldi	r18, 0x00	; 0
     4a4:	30 e0       	ldi	r19, 0x00	; 0
     4a6:	40 e8       	ldi	r20, 0x80	; 128
     4a8:	5f e3       	ldi	r21, 0x3F	; 63
     4aa:	0e 94 59 10 	call	0x20b2	; 0x20b2 <__ltsf2>
     4ae:	88 23       	and	r24, r24
     4b0:	0c f0       	brlt	.+2      	; 0x4b4 <LCD_Command+0x3e6>
     4b2:	10 e0       	ldi	r17, 0x00	; 0
     4b4:	11 23       	and	r17, r17
     4b6:	29 f0       	breq	.+10     	; 0x4c2 <LCD_Command+0x3f4>
		__ticks = 1;
     4b8:	81 e0       	ldi	r24, 0x01	; 1
     4ba:	90 e0       	ldi	r25, 0x00	; 0
     4bc:	9a af       	std	Y+58, r25	; 0x3a
     4be:	89 af       	std	Y+57, r24	; 0x39
     4c0:	46 c0       	rjmp	.+140    	; 0x54e <LCD_Command+0x480>
	else if (__tmp > 65535)
     4c2:	11 e0       	ldi	r17, 0x01	; 1
     4c4:	6d a9       	ldd	r22, Y+53	; 0x35
     4c6:	7e a9       	ldd	r23, Y+54	; 0x36
     4c8:	8f a9       	ldd	r24, Y+55	; 0x37
     4ca:	98 ad       	ldd	r25, Y+56	; 0x38
     4cc:	20 e0       	ldi	r18, 0x00	; 0
     4ce:	3f ef       	ldi	r19, 0xFF	; 255
     4d0:	4f e7       	ldi	r20, 0x7F	; 127
     4d2:	57 e4       	ldi	r21, 0x47	; 71
     4d4:	0e 94 f9 0f 	call	0x1ff2	; 0x1ff2 <__gtsf2>
     4d8:	18 16       	cp	r1, r24
     4da:	0c f0       	brlt	.+2      	; 0x4de <LCD_Command+0x410>
     4dc:	10 e0       	ldi	r17, 0x00	; 0
     4de:	11 23       	and	r17, r17
     4e0:	61 f1       	breq	.+88     	; 0x53a <LCD_Command+0x46c>
	{
		//	__ticks = requested delay in 1/10 ms
		__ticks = (uint16_t) (__ms * 10.0);
     4e2:	69 a9       	ldd	r22, Y+49	; 0x31
     4e4:	7a a9       	ldd	r23, Y+50	; 0x32
     4e6:	8b a9       	ldd	r24, Y+51	; 0x33
     4e8:	9c a9       	ldd	r25, Y+52	; 0x34
     4ea:	20 e0       	ldi	r18, 0x00	; 0
     4ec:	30 e0       	ldi	r19, 0x00	; 0
     4ee:	40 e2       	ldi	r20, 0x20	; 32
     4f0:	51 e4       	ldi	r21, 0x41	; 65
     4f2:	0e 94 51 0e 	call	0x1ca2	; 0x1ca2 <__mulsf3>
     4f6:	dc 01       	movw	r26, r24
     4f8:	cb 01       	movw	r24, r22
     4fa:	bc 01       	movw	r22, r24
     4fc:	cd 01       	movw	r24, r26
     4fe:	0e 94 7d 0c 	call	0x18fa	; 0x18fa <__fixunssfsi>
     502:	dc 01       	movw	r26, r24
     504:	cb 01       	movw	r24, r22
     506:	9a af       	std	Y+58, r25	; 0x3a
     508:	89 af       	std	Y+57, r24	; 0x39
     50a:	12 c0       	rjmp	.+36     	; 0x530 <LCD_Command+0x462>
     50c:	80 e9       	ldi	r24, 0x90	; 144
     50e:	91 e0       	ldi	r25, 0x01	; 1
     510:	9c af       	std	Y+60, r25	; 0x3c
     512:	8b af       	std	Y+59, r24	; 0x3b
    milliseconds can be achieved.
 */
void
_delay_loop_2(uint16_t __count)
{
	__asm__ volatile (
     514:	8b ad       	ldd	r24, Y+59	; 0x3b
     516:	9c ad       	ldd	r25, Y+60	; 0x3c
     518:	8c 01       	movw	r16, r24
     51a:	c8 01       	movw	r24, r16
     51c:	01 97       	sbiw	r24, 0x01	; 1
     51e:	f1 f7       	brne	.-4      	; 0x51c <LCD_Command+0x44e>
     520:	8c 01       	movw	r16, r24
     522:	1c af       	std	Y+60, r17	; 0x3c
     524:	0b af       	std	Y+59, r16	; 0x3b
		while(__ticks)
		{
			// wait 1/10 ms
			_delay_loop_2(((F_CPU) / 4e3) / 10);
			__ticks --;
     526:	89 ad       	ldd	r24, Y+57	; 0x39
     528:	9a ad       	ldd	r25, Y+58	; 0x3a
     52a:	01 97       	sbiw	r24, 0x01	; 1
     52c:	9a af       	std	Y+58, r25	; 0x3a
     52e:	89 af       	std	Y+57, r24	; 0x39
		__ticks = 1;
	else if (__tmp > 65535)
	{
		//	__ticks = requested delay in 1/10 ms
		__ticks = (uint16_t) (__ms * 10.0);
		while(__ticks)
     530:	89 ad       	ldd	r24, Y+57	; 0x39
     532:	9a ad       	ldd	r25, Y+58	; 0x3a
     534:	00 97       	sbiw	r24, 0x00	; 0
     536:	51 f7       	brne	.-44     	; 0x50c <LCD_Command+0x43e>
     538:	17 c0       	rjmp	.+46     	; 0x568 <LCD_Command+0x49a>
			__ticks --;
		}
		return;
	}
	else
		__ticks = (uint16_t)__tmp;
     53a:	6d a9       	ldd	r22, Y+53	; 0x35
     53c:	7e a9       	ldd	r23, Y+54	; 0x36
     53e:	8f a9       	ldd	r24, Y+55	; 0x37
     540:	98 ad       	ldd	r25, Y+56	; 0x38
     542:	0e 94 7d 0c 	call	0x18fa	; 0x18fa <__fixunssfsi>
     546:	dc 01       	movw	r26, r24
     548:	cb 01       	movw	r24, r22
     54a:	9a af       	std	Y+58, r25	; 0x3a
     54c:	89 af       	std	Y+57, r24	; 0x39
     54e:	89 ad       	ldd	r24, Y+57	; 0x39
     550:	9a ad       	ldd	r25, Y+58	; 0x3a
     552:	9e af       	std	Y+62, r25	; 0x3e
     554:	8d af       	std	Y+61, r24	; 0x3d
     556:	8d ad       	ldd	r24, Y+61	; 0x3d
     558:	9e ad       	ldd	r25, Y+62	; 0x3e
     55a:	8c 01       	movw	r16, r24
     55c:	f8 01       	movw	r30, r16
     55e:	31 97       	sbiw	r30, 0x01	; 1
     560:	f1 f7       	brne	.-4      	; 0x55e <LCD_Command+0x490>
     562:	8f 01       	movw	r16, r30
     564:	1e af       	std	Y+62, r17	; 0x3e
     566:	0d af       	std	Y+61, r16	; 0x3d
	_delay_ms(1);
}
     568:	ef 96       	adiw	r28, 0x3f	; 63
     56a:	0f b6       	in	r0, 0x3f	; 63
     56c:	f8 94       	cli
     56e:	de bf       	out	0x3e, r29	; 62
     570:	0f be       	out	0x3f, r0	; 63
     572:	cd bf       	out	0x3d, r28	; 61
     574:	cf 91       	pop	r28
     576:	df 91       	pop	r29
     578:	1f 91       	pop	r17
     57a:	0f 91       	pop	r16
     57c:	08 95       	ret

0000057e <LCD_Data>:

//Data Write
void LCD_Data(unsigned char data)
{
     57e:	0f 93       	push	r16
     580:	1f 93       	push	r17
     582:	df 93       	push	r29
     584:	cf 93       	push	r28
     586:	cd b7       	in	r28, 0x3d	; 61
     588:	de b7       	in	r29, 0x3e	; 62
     58a:	c9 54       	subi	r28, 0x49	; 73
     58c:	d0 40       	sbci	r29, 0x00	; 0
     58e:	0f b6       	in	r0, 0x3f	; 63
     590:	f8 94       	cli
     592:	de bf       	out	0x3e, r29	; 62
     594:	0f be       	out	0x3f, r0	; 63
     596:	cd bf       	out	0x3d, r28	; 61
     598:	9e 01       	movw	r18, r28
     59a:	27 5b       	subi	r18, 0xB7	; 183
     59c:	3f 4f       	sbci	r19, 0xFF	; 255
     59e:	f9 01       	movw	r30, r18
     5a0:	80 83       	st	Z, r24
	LCD_STRU = RS_BIT;
     5a2:	85 e3       	ldi	r24, 0x35	; 53
     5a4:	90 e0       	ldi	r25, 0x00	; 0
     5a6:	21 e0       	ldi	r18, 0x01	; 1
     5a8:	fc 01       	movw	r30, r24
     5aa:	20 83       	st	Z, r18

	LCD_DATA = data;
     5ac:	8b e3       	ldi	r24, 0x3B	; 59
     5ae:	90 e0       	ldi	r25, 0x00	; 0
     5b0:	9e 01       	movw	r18, r28
     5b2:	27 5b       	subi	r18, 0xB7	; 183
     5b4:	3f 4f       	sbci	r19, 0xFF	; 255
     5b6:	f9 01       	movw	r30, r18
     5b8:	20 81       	ld	r18, Z
     5ba:	fc 01       	movw	r30, r24
     5bc:	20 83       	st	Z, r18
     5be:	80 e0       	ldi	r24, 0x00	; 0
     5c0:	90 e0       	ldi	r25, 0x00	; 0
     5c2:	a0 e8       	ldi	r26, 0x80	; 128
     5c4:	bf e3       	ldi	r27, 0x3F	; 63
     5c6:	89 83       	std	Y+1, r24	; 0x01
     5c8:	9a 83       	std	Y+2, r25	; 0x02
     5ca:	ab 83       	std	Y+3, r26	; 0x03
     5cc:	bc 83       	std	Y+4, r27	; 0x04
	#endif

	__builtin_avr_delay_cycles(__ticks_dc);

#elif !__HAS_DELAY_CYCLES || (__HAS_DELAY_CYCLES && !defined(__OPTIMIZE__)) || defined (__DELAY_BACKWARD_COMPATIBLE__)
	__tmp = ((F_CPU) / 3e6) * __us;
     5ce:	69 81       	ldd	r22, Y+1	; 0x01
     5d0:	7a 81       	ldd	r23, Y+2	; 0x02
     5d2:	8b 81       	ldd	r24, Y+3	; 0x03
     5d4:	9c 81       	ldd	r25, Y+4	; 0x04
     5d6:	2b ea       	ldi	r18, 0xAB	; 171
     5d8:	3a ea       	ldi	r19, 0xAA	; 170
     5da:	4a ea       	ldi	r20, 0xAA	; 170
     5dc:	50 e4       	ldi	r21, 0x40	; 64
     5de:	0e 94 51 0e 	call	0x1ca2	; 0x1ca2 <__mulsf3>
     5e2:	dc 01       	movw	r26, r24
     5e4:	cb 01       	movw	r24, r22
     5e6:	8d 83       	std	Y+5, r24	; 0x05
     5e8:	9e 83       	std	Y+6, r25	; 0x06
     5ea:	af 83       	std	Y+7, r26	; 0x07
     5ec:	b8 87       	std	Y+8, r27	; 0x08
	if (__tmp < 1.0)
     5ee:	11 e0       	ldi	r17, 0x01	; 1
     5f0:	6d 81       	ldd	r22, Y+5	; 0x05
     5f2:	7e 81       	ldd	r23, Y+6	; 0x06
     5f4:	8f 81       	ldd	r24, Y+7	; 0x07
     5f6:	98 85       	ldd	r25, Y+8	; 0x08
     5f8:	20 e0       	ldi	r18, 0x00	; 0
     5fa:	30 e0       	ldi	r19, 0x00	; 0
     5fc:	40 e8       	ldi	r20, 0x80	; 128
     5fe:	5f e3       	ldi	r21, 0x3F	; 63
     600:	0e 94 59 10 	call	0x20b2	; 0x20b2 <__ltsf2>
     604:	88 23       	and	r24, r24
     606:	0c f0       	brlt	.+2      	; 0x60a <LCD_Data+0x8c>
     608:	10 e0       	ldi	r17, 0x00	; 0
     60a:	11 23       	and	r17, r17
     60c:	19 f0       	breq	.+6      	; 0x614 <LCD_Data+0x96>
		__ticks = 1;
     60e:	81 e0       	ldi	r24, 0x01	; 1
     610:	89 87       	std	Y+9, r24	; 0x09
     612:	a3 c0       	rjmp	.+326    	; 0x75a <LCD_Data+0x1dc>
	else if (__tmp > 255)
     614:	11 e0       	ldi	r17, 0x01	; 1
     616:	6d 81       	ldd	r22, Y+5	; 0x05
     618:	7e 81       	ldd	r23, Y+6	; 0x06
     61a:	8f 81       	ldd	r24, Y+7	; 0x07
     61c:	98 85       	ldd	r25, Y+8	; 0x08
     61e:	20 e0       	ldi	r18, 0x00	; 0
     620:	30 e0       	ldi	r19, 0x00	; 0
     622:	4f e7       	ldi	r20, 0x7F	; 127
     624:	53 e4       	ldi	r21, 0x43	; 67
     626:	0e 94 f9 0f 	call	0x1ff2	; 0x1ff2 <__gtsf2>
     62a:	18 16       	cp	r1, r24
     62c:	0c f0       	brlt	.+2      	; 0x630 <LCD_Data+0xb2>
     62e:	10 e0       	ldi	r17, 0x00	; 0
     630:	11 23       	and	r17, r17
     632:	09 f4       	brne	.+2      	; 0x636 <LCD_Data+0xb8>
     634:	89 c0       	rjmp	.+274    	; 0x748 <LCD_Data+0x1ca>
	{
		_delay_ms(__us / 1000.0);
     636:	69 81       	ldd	r22, Y+1	; 0x01
     638:	7a 81       	ldd	r23, Y+2	; 0x02
     63a:	8b 81       	ldd	r24, Y+3	; 0x03
     63c:	9c 81       	ldd	r25, Y+4	; 0x04
     63e:	20 e0       	ldi	r18, 0x00	; 0
     640:	30 e0       	ldi	r19, 0x00	; 0
     642:	4a e7       	ldi	r20, 0x7A	; 122
     644:	54 e4       	ldi	r21, 0x44	; 68
     646:	0e 94 4b 0f 	call	0x1e96	; 0x1e96 <__divsf3>
     64a:	dc 01       	movw	r26, r24
     64c:	cb 01       	movw	r24, r22
     64e:	8a 87       	std	Y+10, r24	; 0x0a
     650:	9b 87       	std	Y+11, r25	; 0x0b
     652:	ac 87       	std	Y+12, r26	; 0x0c
     654:	bd 87       	std	Y+13, r27	; 0x0d
	#endif

	__builtin_avr_delay_cycles(__ticks_dc);

#elif !__HAS_DELAY_CYCLES || (__HAS_DELAY_CYCLES && !defined(__OPTIMIZE__)) || defined (__DELAY_BACKWARD_COMPATIBLE__)
	__tmp = ((F_CPU) / 4e3) * __ms;
     656:	6a 85       	ldd	r22, Y+10	; 0x0a
     658:	7b 85       	ldd	r23, Y+11	; 0x0b
     65a:	8c 85       	ldd	r24, Y+12	; 0x0c
     65c:	9d 85       	ldd	r25, Y+13	; 0x0d
     65e:	20 e0       	ldi	r18, 0x00	; 0
     660:	30 e0       	ldi	r19, 0x00	; 0
     662:	4a e7       	ldi	r20, 0x7A	; 122
     664:	55 e4       	ldi	r21, 0x45	; 69
     666:	0e 94 51 0e 	call	0x1ca2	; 0x1ca2 <__mulsf3>
     66a:	dc 01       	movw	r26, r24
     66c:	cb 01       	movw	r24, r22
     66e:	8e 87       	std	Y+14, r24	; 0x0e
     670:	9f 87       	std	Y+15, r25	; 0x0f
     672:	a8 8b       	std	Y+16, r26	; 0x10
     674:	b9 8b       	std	Y+17, r27	; 0x11
	if (__tmp < 1.0)
     676:	11 e0       	ldi	r17, 0x01	; 1
     678:	6e 85       	ldd	r22, Y+14	; 0x0e
     67a:	7f 85       	ldd	r23, Y+15	; 0x0f
     67c:	88 89       	ldd	r24, Y+16	; 0x10
     67e:	99 89       	ldd	r25, Y+17	; 0x11
     680:	20 e0       	ldi	r18, 0x00	; 0
     682:	30 e0       	ldi	r19, 0x00	; 0
     684:	40 e8       	ldi	r20, 0x80	; 128
     686:	5f e3       	ldi	r21, 0x3F	; 63
     688:	0e 94 59 10 	call	0x20b2	; 0x20b2 <__ltsf2>
     68c:	88 23       	and	r24, r24
     68e:	0c f0       	brlt	.+2      	; 0x692 <LCD_Data+0x114>
     690:	10 e0       	ldi	r17, 0x00	; 0
     692:	11 23       	and	r17, r17
     694:	29 f0       	breq	.+10     	; 0x6a0 <LCD_Data+0x122>
		__ticks = 1;
     696:	81 e0       	ldi	r24, 0x01	; 1
     698:	90 e0       	ldi	r25, 0x00	; 0
     69a:	9b 8b       	std	Y+19, r25	; 0x13
     69c:	8a 8b       	std	Y+18, r24	; 0x12
     69e:	46 c0       	rjmp	.+140    	; 0x72c <LCD_Data+0x1ae>
	else if (__tmp > 65535)
     6a0:	11 e0       	ldi	r17, 0x01	; 1
     6a2:	6e 85       	ldd	r22, Y+14	; 0x0e
     6a4:	7f 85       	ldd	r23, Y+15	; 0x0f
     6a6:	88 89       	ldd	r24, Y+16	; 0x10
     6a8:	99 89       	ldd	r25, Y+17	; 0x11
     6aa:	20 e0       	ldi	r18, 0x00	; 0
     6ac:	3f ef       	ldi	r19, 0xFF	; 255
     6ae:	4f e7       	ldi	r20, 0x7F	; 127
     6b0:	57 e4       	ldi	r21, 0x47	; 71
     6b2:	0e 94 f9 0f 	call	0x1ff2	; 0x1ff2 <__gtsf2>
     6b6:	18 16       	cp	r1, r24
     6b8:	0c f0       	brlt	.+2      	; 0x6bc <LCD_Data+0x13e>
     6ba:	10 e0       	ldi	r17, 0x00	; 0
     6bc:	11 23       	and	r17, r17
     6be:	61 f1       	breq	.+88     	; 0x718 <LCD_Data+0x19a>
	{
		//	__ticks = requested delay in 1/10 ms
		__ticks = (uint16_t) (__ms * 10.0);
     6c0:	6a 85       	ldd	r22, Y+10	; 0x0a
     6c2:	7b 85       	ldd	r23, Y+11	; 0x0b
     6c4:	8c 85       	ldd	r24, Y+12	; 0x0c
     6c6:	9d 85       	ldd	r25, Y+13	; 0x0d
     6c8:	20 e0       	ldi	r18, 0x00	; 0
     6ca:	30 e0       	ldi	r19, 0x00	; 0
     6cc:	40 e2       	ldi	r20, 0x20	; 32
     6ce:	51 e4       	ldi	r21, 0x41	; 65
     6d0:	0e 94 51 0e 	call	0x1ca2	; 0x1ca2 <__mulsf3>
     6d4:	dc 01       	movw	r26, r24
     6d6:	cb 01       	movw	r24, r22
     6d8:	bc 01       	movw	r22, r24
     6da:	cd 01       	movw	r24, r26
     6dc:	0e 94 7d 0c 	call	0x18fa	; 0x18fa <__fixunssfsi>
     6e0:	dc 01       	movw	r26, r24
     6e2:	cb 01       	movw	r24, r22
     6e4:	9b 8b       	std	Y+19, r25	; 0x13
     6e6:	8a 8b       	std	Y+18, r24	; 0x12
     6e8:	12 c0       	rjmp	.+36     	; 0x70e <LCD_Data+0x190>
     6ea:	80 e9       	ldi	r24, 0x90	; 144
     6ec:	91 e0       	ldi	r25, 0x01	; 1
     6ee:	9d 8b       	std	Y+21, r25	; 0x15
     6f0:	8c 8b       	std	Y+20, r24	; 0x14
     6f2:	8c 89       	ldd	r24, Y+20	; 0x14
     6f4:	9d 89       	ldd	r25, Y+21	; 0x15
     6f6:	8c 01       	movw	r16, r24
     6f8:	c8 01       	movw	r24, r16
     6fa:	01 97       	sbiw	r24, 0x01	; 1
     6fc:	f1 f7       	brne	.-4      	; 0x6fa <LCD_Data+0x17c>
     6fe:	8c 01       	movw	r16, r24
     700:	1d 8b       	std	Y+21, r17	; 0x15
     702:	0c 8b       	std	Y+20, r16	; 0x14
		while(__ticks)
		{
			// wait 1/10 ms
			_delay_loop_2(((F_CPU) / 4e3) / 10);
			__ticks --;
     704:	8a 89       	ldd	r24, Y+18	; 0x12
     706:	9b 89       	ldd	r25, Y+19	; 0x13
     708:	01 97       	sbiw	r24, 0x01	; 1
     70a:	9b 8b       	std	Y+19, r25	; 0x13
     70c:	8a 8b       	std	Y+18, r24	; 0x12
		__ticks = 1;
	else if (__tmp > 65535)
	{
		//	__ticks = requested delay in 1/10 ms
		__ticks = (uint16_t) (__ms * 10.0);
		while(__ticks)
     70e:	8a 89       	ldd	r24, Y+18	; 0x12
     710:	9b 89       	ldd	r25, Y+19	; 0x13
     712:	00 97       	sbiw	r24, 0x00	; 0
     714:	51 f7       	brne	.-44     	; 0x6ea <LCD_Data+0x16c>
     716:	28 c0       	rjmp	.+80     	; 0x768 <LCD_Data+0x1ea>
			__ticks --;
		}
		return;
	}
	else
		__ticks = (uint16_t)__tmp;
     718:	6e 85       	ldd	r22, Y+14	; 0x0e
     71a:	7f 85       	ldd	r23, Y+15	; 0x0f
     71c:	88 89       	ldd	r24, Y+16	; 0x10
     71e:	99 89       	ldd	r25, Y+17	; 0x11
     720:	0e 94 7d 0c 	call	0x18fa	; 0x18fa <__fixunssfsi>
     724:	dc 01       	movw	r26, r24
     726:	cb 01       	movw	r24, r22
     728:	9b 8b       	std	Y+19, r25	; 0x13
     72a:	8a 8b       	std	Y+18, r24	; 0x12
     72c:	8a 89       	ldd	r24, Y+18	; 0x12
     72e:	9b 89       	ldd	r25, Y+19	; 0x13
     730:	9f 8b       	std	Y+23, r25	; 0x17
     732:	8e 8b       	std	Y+22, r24	; 0x16
     734:	8e 89       	ldd	r24, Y+22	; 0x16
     736:	9f 89       	ldd	r25, Y+23	; 0x17
     738:	8c 01       	movw	r16, r24
     73a:	f8 01       	movw	r30, r16
     73c:	31 97       	sbiw	r30, 0x01	; 1
     73e:	f1 f7       	brne	.-4      	; 0x73c <LCD_Data+0x1be>
     740:	8f 01       	movw	r16, r30
     742:	1f 8b       	std	Y+23, r17	; 0x17
     744:	0e 8b       	std	Y+22, r16	; 0x16
     746:	10 c0       	rjmp	.+32     	; 0x768 <LCD_Data+0x1ea>
	{
		_delay_ms(__us / 1000.0);
		return;
	}
	else
		__ticks = (uint8_t)__tmp;
     748:	6d 81       	ldd	r22, Y+5	; 0x05
     74a:	7e 81       	ldd	r23, Y+6	; 0x06
     74c:	8f 81       	ldd	r24, Y+7	; 0x07
     74e:	98 85       	ldd	r25, Y+8	; 0x08
     750:	0e 94 7d 0c 	call	0x18fa	; 0x18fa <__fixunssfsi>
     754:	dc 01       	movw	r26, r24
     756:	cb 01       	movw	r24, r22
     758:	89 87       	std	Y+9, r24	; 0x09
     75a:	89 85       	ldd	r24, Y+9	; 0x09
     75c:	88 8f       	std	Y+24, r24	; 0x18
    can be achieved.
*/
void
_delay_loop_1(uint8_t __count)
{
	__asm__ volatile (
     75e:	88 8d       	ldd	r24, Y+24	; 0x18
     760:	18 2f       	mov	r17, r24
     762:	1a 95       	dec	r17
     764:	f1 f7       	brne	.-4      	; 0x762 <LCD_Data+0x1e4>
     766:	18 8f       	std	Y+24, r17	; 0x18
	_delay_us(1);

	LCD_STRU |= ENABLE_BIT;
     768:	85 e3       	ldi	r24, 0x35	; 53
     76a:	90 e0       	ldi	r25, 0x00	; 0
     76c:	25 e3       	ldi	r18, 0x35	; 53
     76e:	30 e0       	ldi	r19, 0x00	; 0
     770:	f9 01       	movw	r30, r18
     772:	20 81       	ld	r18, Z
     774:	24 60       	ori	r18, 0x04	; 4
     776:	fc 01       	movw	r30, r24
     778:	20 83       	st	Z, r18
     77a:	80 e0       	ldi	r24, 0x00	; 0
     77c:	90 e0       	ldi	r25, 0x00	; 0
     77e:	a0 e2       	ldi	r26, 0x20	; 32
     780:	b1 e4       	ldi	r27, 0x41	; 65
     782:	89 8f       	std	Y+25, r24	; 0x19
     784:	9a 8f       	std	Y+26, r25	; 0x1a
     786:	ab 8f       	std	Y+27, r26	; 0x1b
     788:	bc 8f       	std	Y+28, r27	; 0x1c
	#endif

	__builtin_avr_delay_cycles(__ticks_dc);

#elif !__HAS_DELAY_CYCLES || (__HAS_DELAY_CYCLES && !defined(__OPTIMIZE__)) || defined (__DELAY_BACKWARD_COMPATIBLE__)
	__tmp = ((F_CPU) / 3e6) * __us;
     78a:	69 8d       	ldd	r22, Y+25	; 0x19
     78c:	7a 8d       	ldd	r23, Y+26	; 0x1a
     78e:	8b 8d       	ldd	r24, Y+27	; 0x1b
     790:	9c 8d       	ldd	r25, Y+28	; 0x1c
     792:	2b ea       	ldi	r18, 0xAB	; 171
     794:	3a ea       	ldi	r19, 0xAA	; 170
     796:	4a ea       	ldi	r20, 0xAA	; 170
     798:	50 e4       	ldi	r21, 0x40	; 64
     79a:	0e 94 51 0e 	call	0x1ca2	; 0x1ca2 <__mulsf3>
     79e:	dc 01       	movw	r26, r24
     7a0:	cb 01       	movw	r24, r22
     7a2:	8d 8f       	std	Y+29, r24	; 0x1d
     7a4:	9e 8f       	std	Y+30, r25	; 0x1e
     7a6:	af 8f       	std	Y+31, r26	; 0x1f
     7a8:	b8 a3       	std	Y+32, r27	; 0x20
	if (__tmp < 1.0)
     7aa:	11 e0       	ldi	r17, 0x01	; 1
     7ac:	6d 8d       	ldd	r22, Y+29	; 0x1d
     7ae:	7e 8d       	ldd	r23, Y+30	; 0x1e
     7b0:	8f 8d       	ldd	r24, Y+31	; 0x1f
     7b2:	98 a1       	ldd	r25, Y+32	; 0x20
     7b4:	20 e0       	ldi	r18, 0x00	; 0
     7b6:	30 e0       	ldi	r19, 0x00	; 0
     7b8:	40 e8       	ldi	r20, 0x80	; 128
     7ba:	5f e3       	ldi	r21, 0x3F	; 63
     7bc:	0e 94 59 10 	call	0x20b2	; 0x20b2 <__ltsf2>
     7c0:	88 23       	and	r24, r24
     7c2:	0c f0       	brlt	.+2      	; 0x7c6 <LCD_Data+0x248>
     7c4:	10 e0       	ldi	r17, 0x00	; 0
     7c6:	11 23       	and	r17, r17
     7c8:	19 f0       	breq	.+6      	; 0x7d0 <LCD_Data+0x252>
		__ticks = 1;
     7ca:	81 e0       	ldi	r24, 0x01	; 1
     7cc:	89 a3       	std	Y+33, r24	; 0x21
     7ce:	a3 c0       	rjmp	.+326    	; 0x916 <LCD_Data+0x398>
	else if (__tmp > 255)
     7d0:	11 e0       	ldi	r17, 0x01	; 1
     7d2:	6d 8d       	ldd	r22, Y+29	; 0x1d
     7d4:	7e 8d       	ldd	r23, Y+30	; 0x1e
     7d6:	8f 8d       	ldd	r24, Y+31	; 0x1f
     7d8:	98 a1       	ldd	r25, Y+32	; 0x20
     7da:	20 e0       	ldi	r18, 0x00	; 0
     7dc:	30 e0       	ldi	r19, 0x00	; 0
     7de:	4f e7       	ldi	r20, 0x7F	; 127
     7e0:	53 e4       	ldi	r21, 0x43	; 67
     7e2:	0e 94 f9 0f 	call	0x1ff2	; 0x1ff2 <__gtsf2>
     7e6:	18 16       	cp	r1, r24
     7e8:	0c f0       	brlt	.+2      	; 0x7ec <LCD_Data+0x26e>
     7ea:	10 e0       	ldi	r17, 0x00	; 0
     7ec:	11 23       	and	r17, r17
     7ee:	09 f4       	brne	.+2      	; 0x7f2 <LCD_Data+0x274>
     7f0:	89 c0       	rjmp	.+274    	; 0x904 <LCD_Data+0x386>
	{
		_delay_ms(__us / 1000.0);
     7f2:	69 8d       	ldd	r22, Y+25	; 0x19
     7f4:	7a 8d       	ldd	r23, Y+26	; 0x1a
     7f6:	8b 8d       	ldd	r24, Y+27	; 0x1b
     7f8:	9c 8d       	ldd	r25, Y+28	; 0x1c
     7fa:	20 e0       	ldi	r18, 0x00	; 0
     7fc:	30 e0       	ldi	r19, 0x00	; 0
     7fe:	4a e7       	ldi	r20, 0x7A	; 122
     800:	54 e4       	ldi	r21, 0x44	; 68
     802:	0e 94 4b 0f 	call	0x1e96	; 0x1e96 <__divsf3>
     806:	dc 01       	movw	r26, r24
     808:	cb 01       	movw	r24, r22
     80a:	8a a3       	std	Y+34, r24	; 0x22
     80c:	9b a3       	std	Y+35, r25	; 0x23
     80e:	ac a3       	std	Y+36, r26	; 0x24
     810:	bd a3       	std	Y+37, r27	; 0x25
	#endif

	__builtin_avr_delay_cycles(__ticks_dc);

#elif !__HAS_DELAY_CYCLES || (__HAS_DELAY_CYCLES && !defined(__OPTIMIZE__)) || defined (__DELAY_BACKWARD_COMPATIBLE__)
	__tmp = ((F_CPU) / 4e3) * __ms;
     812:	6a a1       	ldd	r22, Y+34	; 0x22
     814:	7b a1       	ldd	r23, Y+35	; 0x23
     816:	8c a1       	ldd	r24, Y+36	; 0x24
     818:	9d a1       	ldd	r25, Y+37	; 0x25
     81a:	20 e0       	ldi	r18, 0x00	; 0
     81c:	30 e0       	ldi	r19, 0x00	; 0
     81e:	4a e7       	ldi	r20, 0x7A	; 122
     820:	55 e4       	ldi	r21, 0x45	; 69
     822:	0e 94 51 0e 	call	0x1ca2	; 0x1ca2 <__mulsf3>
     826:	dc 01       	movw	r26, r24
     828:	cb 01       	movw	r24, r22
     82a:	8e a3       	std	Y+38, r24	; 0x26
     82c:	9f a3       	std	Y+39, r25	; 0x27
     82e:	a8 a7       	std	Y+40, r26	; 0x28
     830:	b9 a7       	std	Y+41, r27	; 0x29
	if (__tmp < 1.0)
     832:	11 e0       	ldi	r17, 0x01	; 1
     834:	6e a1       	ldd	r22, Y+38	; 0x26
     836:	7f a1       	ldd	r23, Y+39	; 0x27
     838:	88 a5       	ldd	r24, Y+40	; 0x28
     83a:	99 a5       	ldd	r25, Y+41	; 0x29
     83c:	20 e0       	ldi	r18, 0x00	; 0
     83e:	30 e0       	ldi	r19, 0x00	; 0
     840:	40 e8       	ldi	r20, 0x80	; 128
     842:	5f e3       	ldi	r21, 0x3F	; 63
     844:	0e 94 59 10 	call	0x20b2	; 0x20b2 <__ltsf2>
     848:	88 23       	and	r24, r24
     84a:	0c f0       	brlt	.+2      	; 0x84e <LCD_Data+0x2d0>
     84c:	10 e0       	ldi	r17, 0x00	; 0
     84e:	11 23       	and	r17, r17
     850:	29 f0       	breq	.+10     	; 0x85c <LCD_Data+0x2de>
		__ticks = 1;
     852:	81 e0       	ldi	r24, 0x01	; 1
     854:	90 e0       	ldi	r25, 0x00	; 0
     856:	9b a7       	std	Y+43, r25	; 0x2b
     858:	8a a7       	std	Y+42, r24	; 0x2a
     85a:	46 c0       	rjmp	.+140    	; 0x8e8 <LCD_Data+0x36a>
	else if (__tmp > 65535)
     85c:	11 e0       	ldi	r17, 0x01	; 1
     85e:	6e a1       	ldd	r22, Y+38	; 0x26
     860:	7f a1       	ldd	r23, Y+39	; 0x27
     862:	88 a5       	ldd	r24, Y+40	; 0x28
     864:	99 a5       	ldd	r25, Y+41	; 0x29
     866:	20 e0       	ldi	r18, 0x00	; 0
     868:	3f ef       	ldi	r19, 0xFF	; 255
     86a:	4f e7       	ldi	r20, 0x7F	; 127
     86c:	57 e4       	ldi	r21, 0x47	; 71
     86e:	0e 94 f9 0f 	call	0x1ff2	; 0x1ff2 <__gtsf2>
     872:	18 16       	cp	r1, r24
     874:	0c f0       	brlt	.+2      	; 0x878 <LCD_Data+0x2fa>
     876:	10 e0       	ldi	r17, 0x00	; 0
     878:	11 23       	and	r17, r17
     87a:	61 f1       	breq	.+88     	; 0x8d4 <LCD_Data+0x356>
	{
		//	__ticks = requested delay in 1/10 ms
		__ticks = (uint16_t) (__ms * 10.0);
     87c:	6a a1       	ldd	r22, Y+34	; 0x22
     87e:	7b a1       	ldd	r23, Y+35	; 0x23
     880:	8c a1       	ldd	r24, Y+36	; 0x24
     882:	9d a1       	ldd	r25, Y+37	; 0x25
     884:	20 e0       	ldi	r18, 0x00	; 0
     886:	30 e0       	ldi	r19, 0x00	; 0
     888:	40 e2       	ldi	r20, 0x20	; 32
     88a:	51 e4       	ldi	r21, 0x41	; 65
     88c:	0e 94 51 0e 	call	0x1ca2	; 0x1ca2 <__mulsf3>
     890:	dc 01       	movw	r26, r24
     892:	cb 01       	movw	r24, r22
     894:	bc 01       	movw	r22, r24
     896:	cd 01       	movw	r24, r26
     898:	0e 94 7d 0c 	call	0x18fa	; 0x18fa <__fixunssfsi>
     89c:	dc 01       	movw	r26, r24
     89e:	cb 01       	movw	r24, r22
     8a0:	9b a7       	std	Y+43, r25	; 0x2b
     8a2:	8a a7       	std	Y+42, r24	; 0x2a
     8a4:	12 c0       	rjmp	.+36     	; 0x8ca <LCD_Data+0x34c>
     8a6:	80 e9       	ldi	r24, 0x90	; 144
     8a8:	91 e0       	ldi	r25, 0x01	; 1
     8aa:	9d a7       	std	Y+45, r25	; 0x2d
     8ac:	8c a7       	std	Y+44, r24	; 0x2c
    milliseconds can be achieved.
 */
void
_delay_loop_2(uint16_t __count)
{
	__asm__ volatile (
     8ae:	8c a5       	ldd	r24, Y+44	; 0x2c
     8b0:	9d a5       	ldd	r25, Y+45	; 0x2d
     8b2:	8c 01       	movw	r16, r24
     8b4:	c8 01       	movw	r24, r16
     8b6:	01 97       	sbiw	r24, 0x01	; 1
     8b8:	f1 f7       	brne	.-4      	; 0x8b6 <LCD_Data+0x338>
     8ba:	8c 01       	movw	r16, r24
     8bc:	1d a7       	std	Y+45, r17	; 0x2d
     8be:	0c a7       	std	Y+44, r16	; 0x2c
		while(__ticks)
		{
			// wait 1/10 ms
			_delay_loop_2(((F_CPU) / 4e3) / 10);
			__ticks --;
     8c0:	8a a5       	ldd	r24, Y+42	; 0x2a
     8c2:	9b a5       	ldd	r25, Y+43	; 0x2b
     8c4:	01 97       	sbiw	r24, 0x01	; 1
     8c6:	9b a7       	std	Y+43, r25	; 0x2b
     8c8:	8a a7       	std	Y+42, r24	; 0x2a
		__ticks = 1;
	else if (__tmp > 65535)
	{
		//	__ticks = requested delay in 1/10 ms
		__ticks = (uint16_t) (__ms * 10.0);
		while(__ticks)
     8ca:	8a a5       	ldd	r24, Y+42	; 0x2a
     8cc:	9b a5       	ldd	r25, Y+43	; 0x2b
     8ce:	00 97       	sbiw	r24, 0x00	; 0
     8d0:	51 f7       	brne	.-44     	; 0x8a6 <LCD_Data+0x328>
     8d2:	28 c0       	rjmp	.+80     	; 0x924 <LCD_Data+0x3a6>
			__ticks --;
		}
		return;
	}
	else
		__ticks = (uint16_t)__tmp;
     8d4:	6e a1       	ldd	r22, Y+38	; 0x26
     8d6:	7f a1       	ldd	r23, Y+39	; 0x27
     8d8:	88 a5       	ldd	r24, Y+40	; 0x28
     8da:	99 a5       	ldd	r25, Y+41	; 0x29
     8dc:	0e 94 7d 0c 	call	0x18fa	; 0x18fa <__fixunssfsi>
     8e0:	dc 01       	movw	r26, r24
     8e2:	cb 01       	movw	r24, r22
     8e4:	9b a7       	std	Y+43, r25	; 0x2b
     8e6:	8a a7       	std	Y+42, r24	; 0x2a
     8e8:	8a a5       	ldd	r24, Y+42	; 0x2a
     8ea:	9b a5       	ldd	r25, Y+43	; 0x2b
     8ec:	9f a7       	std	Y+47, r25	; 0x2f
     8ee:	8e a7       	std	Y+46, r24	; 0x2e
     8f0:	8e a5       	ldd	r24, Y+46	; 0x2e
     8f2:	9f a5       	ldd	r25, Y+47	; 0x2f
     8f4:	8c 01       	movw	r16, r24
     8f6:	f8 01       	movw	r30, r16
     8f8:	31 97       	sbiw	r30, 0x01	; 1
     8fa:	f1 f7       	brne	.-4      	; 0x8f8 <LCD_Data+0x37a>
     8fc:	8f 01       	movw	r16, r30
     8fe:	1f a7       	std	Y+47, r17	; 0x2f
     900:	0e a7       	std	Y+46, r16	; 0x2e
     902:	10 c0       	rjmp	.+32     	; 0x924 <LCD_Data+0x3a6>
	{
		_delay_ms(__us / 1000.0);
		return;
	}
	else
		__ticks = (uint8_t)__tmp;
     904:	6d 8d       	ldd	r22, Y+29	; 0x1d
     906:	7e 8d       	ldd	r23, Y+30	; 0x1e
     908:	8f 8d       	ldd	r24, Y+31	; 0x1f
     90a:	98 a1       	ldd	r25, Y+32	; 0x20
     90c:	0e 94 7d 0c 	call	0x18fa	; 0x18fa <__fixunssfsi>
     910:	dc 01       	movw	r26, r24
     912:	cb 01       	movw	r24, r22
     914:	89 a3       	std	Y+33, r24	; 0x21
     916:	89 a1       	ldd	r24, Y+33	; 0x21
     918:	88 ab       	std	Y+48, r24	; 0x30
    can be achieved.
*/
void
_delay_loop_1(uint8_t __count)
{
	__asm__ volatile (
     91a:	88 a9       	ldd	r24, Y+48	; 0x30
     91c:	18 2f       	mov	r17, r24
     91e:	1a 95       	dec	r17
     920:	f1 f7       	brne	.-4      	; 0x91e <LCD_Data+0x3a0>
     922:	18 ab       	std	Y+48, r17	; 0x30
	_delay_us(10);

	LCD_STRU = 0;
     924:	85 e3       	ldi	r24, 0x35	; 53
     926:	90 e0       	ldi	r25, 0x00	; 0
     928:	fc 01       	movw	r30, r24
     92a:	10 82       	st	Z, r1
     92c:	80 e0       	ldi	r24, 0x00	; 0
     92e:	90 e0       	ldi	r25, 0x00	; 0
     930:	a8 e4       	ldi	r26, 0x48	; 72
     932:	b2 e4       	ldi	r27, 0x42	; 66
     934:	89 ab       	std	Y+49, r24	; 0x31
     936:	9a ab       	std	Y+50, r25	; 0x32
     938:	ab ab       	std	Y+51, r26	; 0x33
     93a:	bc ab       	std	Y+52, r27	; 0x34
	#endif

	__builtin_avr_delay_cycles(__ticks_dc);

#elif !__HAS_DELAY_CYCLES || (__HAS_DELAY_CYCLES && !defined(__OPTIMIZE__)) || defined (__DELAY_BACKWARD_COMPATIBLE__)
	__tmp = ((F_CPU) / 3e6) * __us;
     93c:	69 a9       	ldd	r22, Y+49	; 0x31
     93e:	7a a9       	ldd	r23, Y+50	; 0x32
     940:	8b a9       	ldd	r24, Y+51	; 0x33
     942:	9c a9       	ldd	r25, Y+52	; 0x34
     944:	2b ea       	ldi	r18, 0xAB	; 171
     946:	3a ea       	ldi	r19, 0xAA	; 170
     948:	4a ea       	ldi	r20, 0xAA	; 170
     94a:	50 e4       	ldi	r21, 0x40	; 64
     94c:	0e 94 51 0e 	call	0x1ca2	; 0x1ca2 <__mulsf3>
     950:	dc 01       	movw	r26, r24
     952:	cb 01       	movw	r24, r22
     954:	8d ab       	std	Y+53, r24	; 0x35
     956:	9e ab       	std	Y+54, r25	; 0x36
     958:	af ab       	std	Y+55, r26	; 0x37
     95a:	b8 af       	std	Y+56, r27	; 0x38
	if (__tmp < 1.0)
     95c:	11 e0       	ldi	r17, 0x01	; 1
     95e:	6d a9       	ldd	r22, Y+53	; 0x35
     960:	7e a9       	ldd	r23, Y+54	; 0x36
     962:	8f a9       	ldd	r24, Y+55	; 0x37
     964:	98 ad       	ldd	r25, Y+56	; 0x38
     966:	20 e0       	ldi	r18, 0x00	; 0
     968:	30 e0       	ldi	r19, 0x00	; 0
     96a:	40 e8       	ldi	r20, 0x80	; 128
     96c:	5f e3       	ldi	r21, 0x3F	; 63
     96e:	0e 94 59 10 	call	0x20b2	; 0x20b2 <__ltsf2>
     972:	88 23       	and	r24, r24
     974:	0c f0       	brlt	.+2      	; 0x978 <LCD_Data+0x3fa>
     976:	10 e0       	ldi	r17, 0x00	; 0
     978:	11 23       	and	r17, r17
     97a:	19 f0       	breq	.+6      	; 0x982 <LCD_Data+0x404>
		__ticks = 1;
     97c:	81 e0       	ldi	r24, 0x01	; 1
     97e:	89 af       	std	Y+57, r24	; 0x39
     980:	e6 c0       	rjmp	.+460    	; 0xb4e <LCD_Data+0x5d0>
	else if (__tmp > 255)
     982:	11 e0       	ldi	r17, 0x01	; 1
     984:	6d a9       	ldd	r22, Y+53	; 0x35
     986:	7e a9       	ldd	r23, Y+54	; 0x36
     988:	8f a9       	ldd	r24, Y+55	; 0x37
     98a:	98 ad       	ldd	r25, Y+56	; 0x38
     98c:	20 e0       	ldi	r18, 0x00	; 0
     98e:	30 e0       	ldi	r19, 0x00	; 0
     990:	4f e7       	ldi	r20, 0x7F	; 127
     992:	53 e4       	ldi	r21, 0x43	; 67
     994:	0e 94 f9 0f 	call	0x1ff2	; 0x1ff2 <__gtsf2>
     998:	18 16       	cp	r1, r24
     99a:	0c f0       	brlt	.+2      	; 0x99e <LCD_Data+0x420>
     99c:	10 e0       	ldi	r17, 0x00	; 0
     99e:	11 23       	and	r17, r17
     9a0:	09 f4       	brne	.+2      	; 0x9a4 <LCD_Data+0x426>
     9a2:	cc c0       	rjmp	.+408    	; 0xb3c <LCD_Data+0x5be>
	{
		_delay_ms(__us / 1000.0);
     9a4:	69 a9       	ldd	r22, Y+49	; 0x31
     9a6:	7a a9       	ldd	r23, Y+50	; 0x32
     9a8:	8b a9       	ldd	r24, Y+51	; 0x33
     9aa:	9c a9       	ldd	r25, Y+52	; 0x34
     9ac:	20 e0       	ldi	r18, 0x00	; 0
     9ae:	30 e0       	ldi	r19, 0x00	; 0
     9b0:	4a e7       	ldi	r20, 0x7A	; 122
     9b2:	54 e4       	ldi	r21, 0x44	; 68
     9b4:	0e 94 4b 0f 	call	0x1e96	; 0x1e96 <__divsf3>
     9b8:	dc 01       	movw	r26, r24
     9ba:	cb 01       	movw	r24, r22
     9bc:	8a af       	std	Y+58, r24	; 0x3a
     9be:	9b af       	std	Y+59, r25	; 0x3b
     9c0:	ac af       	std	Y+60, r26	; 0x3c
     9c2:	bd af       	std	Y+61, r27	; 0x3d
	#endif

	__builtin_avr_delay_cycles(__ticks_dc);

#elif !__HAS_DELAY_CYCLES || (__HAS_DELAY_CYCLES && !defined(__OPTIMIZE__)) || defined (__DELAY_BACKWARD_COMPATIBLE__)
	__tmp = ((F_CPU) / 4e3) * __ms;
     9c4:	8e 01       	movw	r16, r28
     9c6:	02 5c       	subi	r16, 0xC2	; 194
     9c8:	1f 4f       	sbci	r17, 0xFF	; 255
     9ca:	6a ad       	ldd	r22, Y+58	; 0x3a
     9cc:	7b ad       	ldd	r23, Y+59	; 0x3b
     9ce:	8c ad       	ldd	r24, Y+60	; 0x3c
     9d0:	9d ad       	ldd	r25, Y+61	; 0x3d
     9d2:	20 e0       	ldi	r18, 0x00	; 0
     9d4:	30 e0       	ldi	r19, 0x00	; 0
     9d6:	4a e7       	ldi	r20, 0x7A	; 122
     9d8:	55 e4       	ldi	r21, 0x45	; 69
     9da:	0e 94 51 0e 	call	0x1ca2	; 0x1ca2 <__mulsf3>
     9de:	dc 01       	movw	r26, r24
     9e0:	cb 01       	movw	r24, r22
     9e2:	f8 01       	movw	r30, r16
     9e4:	80 83       	st	Z, r24
     9e6:	91 83       	std	Z+1, r25	; 0x01
     9e8:	a2 83       	std	Z+2, r26	; 0x02
     9ea:	b3 83       	std	Z+3, r27	; 0x03
	if (__tmp < 1.0)
     9ec:	ce 01       	movw	r24, r28
     9ee:	ce 96       	adiw	r24, 0x3e	; 62
     9f0:	11 e0       	ldi	r17, 0x01	; 1
     9f2:	fc 01       	movw	r30, r24
     9f4:	60 81       	ld	r22, Z
     9f6:	71 81       	ldd	r23, Z+1	; 0x01
     9f8:	82 81       	ldd	r24, Z+2	; 0x02
     9fa:	93 81       	ldd	r25, Z+3	; 0x03
     9fc:	20 e0       	ldi	r18, 0x00	; 0
     9fe:	30 e0       	ldi	r19, 0x00	; 0
     a00:	40 e8       	ldi	r20, 0x80	; 128
     a02:	5f e3       	ldi	r21, 0x3F	; 63
     a04:	0e 94 59 10 	call	0x20b2	; 0x20b2 <__ltsf2>
     a08:	88 23       	and	r24, r24
     a0a:	0c f0       	brlt	.+2      	; 0xa0e <LCD_Data+0x490>
     a0c:	10 e0       	ldi	r17, 0x00	; 0
     a0e:	11 23       	and	r17, r17
     a10:	49 f0       	breq	.+18     	; 0xa24 <LCD_Data+0x4a6>
		__ticks = 1;
     a12:	ce 01       	movw	r24, r28
     a14:	8e 5b       	subi	r24, 0xBE	; 190
     a16:	9f 4f       	sbci	r25, 0xFF	; 255
     a18:	21 e0       	ldi	r18, 0x01	; 1
     a1a:	30 e0       	ldi	r19, 0x00	; 0
     a1c:	fc 01       	movw	r30, r24
     a1e:	31 83       	std	Z+1, r19	; 0x01
     a20:	20 83       	st	Z, r18
     a22:	6e c0       	rjmp	.+220    	; 0xb00 <LCD_Data+0x582>
	else if (__tmp > 65535)
     a24:	ce 01       	movw	r24, r28
     a26:	ce 96       	adiw	r24, 0x3e	; 62
     a28:	11 e0       	ldi	r17, 0x01	; 1
     a2a:	fc 01       	movw	r30, r24
     a2c:	60 81       	ld	r22, Z
     a2e:	71 81       	ldd	r23, Z+1	; 0x01
     a30:	82 81       	ldd	r24, Z+2	; 0x02
     a32:	93 81       	ldd	r25, Z+3	; 0x03
     a34:	20 e0       	ldi	r18, 0x00	; 0
     a36:	3f ef       	ldi	r19, 0xFF	; 255
     a38:	4f e7       	ldi	r20, 0x7F	; 127
     a3a:	57 e4       	ldi	r21, 0x47	; 71
     a3c:	0e 94 f9 0f 	call	0x1ff2	; 0x1ff2 <__gtsf2>
     a40:	18 16       	cp	r1, r24
     a42:	0c f0       	brlt	.+2      	; 0xa46 <LCD_Data+0x4c8>
     a44:	10 e0       	ldi	r17, 0x00	; 0
     a46:	11 23       	and	r17, r17
     a48:	09 f4       	brne	.+2      	; 0xa4c <LCD_Data+0x4ce>
     a4a:	49 c0       	rjmp	.+146    	; 0xade <LCD_Data+0x560>
	{
		//	__ticks = requested delay in 1/10 ms
		__ticks = (uint16_t) (__ms * 10.0);
     a4c:	6a ad       	ldd	r22, Y+58	; 0x3a
     a4e:	7b ad       	ldd	r23, Y+59	; 0x3b
     a50:	8c ad       	ldd	r24, Y+60	; 0x3c
     a52:	9d ad       	ldd	r25, Y+61	; 0x3d
     a54:	20 e0       	ldi	r18, 0x00	; 0
     a56:	30 e0       	ldi	r19, 0x00	; 0
     a58:	40 e2       	ldi	r20, 0x20	; 32
     a5a:	51 e4       	ldi	r21, 0x41	; 65
     a5c:	0e 94 51 0e 	call	0x1ca2	; 0x1ca2 <__mulsf3>
     a60:	dc 01       	movw	r26, r24
     a62:	cb 01       	movw	r24, r22
     a64:	8e 01       	movw	r16, r28
     a66:	0e 5b       	subi	r16, 0xBE	; 190
     a68:	1f 4f       	sbci	r17, 0xFF	; 255
     a6a:	bc 01       	movw	r22, r24
     a6c:	cd 01       	movw	r24, r26
     a6e:	0e 94 7d 0c 	call	0x18fa	; 0x18fa <__fixunssfsi>
     a72:	dc 01       	movw	r26, r24
     a74:	cb 01       	movw	r24, r22
     a76:	f8 01       	movw	r30, r16
     a78:	91 83       	std	Z+1, r25	; 0x01
     a7a:	80 83       	st	Z, r24
     a7c:	27 c0       	rjmp	.+78     	; 0xacc <LCD_Data+0x54e>
     a7e:	ce 01       	movw	r24, r28
     a80:	8c 5b       	subi	r24, 0xBC	; 188
     a82:	9f 4f       	sbci	r25, 0xFF	; 255
     a84:	20 e9       	ldi	r18, 0x90	; 144
     a86:	31 e0       	ldi	r19, 0x01	; 1
     a88:	fc 01       	movw	r30, r24
     a8a:	31 83       	std	Z+1, r19	; 0x01
     a8c:	20 83       	st	Z, r18
    milliseconds can be achieved.
 */
void
_delay_loop_2(uint16_t __count)
{
	__asm__ volatile (
     a8e:	ce 01       	movw	r24, r28
     a90:	8c 5b       	subi	r24, 0xBC	; 188
     a92:	9f 4f       	sbci	r25, 0xFF	; 255
     a94:	fc 01       	movw	r30, r24
     a96:	80 81       	ld	r24, Z
     a98:	91 81       	ldd	r25, Z+1	; 0x01
     a9a:	8c 01       	movw	r16, r24
     a9c:	c8 01       	movw	r24, r16
     a9e:	01 97       	sbiw	r24, 0x01	; 1
     aa0:	f1 f7       	brne	.-4      	; 0xa9e <LCD_Data+0x520>
     aa2:	8c 01       	movw	r16, r24
     aa4:	ce 01       	movw	r24, r28
     aa6:	8c 5b       	subi	r24, 0xBC	; 188
     aa8:	9f 4f       	sbci	r25, 0xFF	; 255
     aaa:	fc 01       	movw	r30, r24
     aac:	11 83       	std	Z+1, r17	; 0x01
     aae:	00 83       	st	Z, r16
		while(__ticks)
		{
			// wait 1/10 ms
			_delay_loop_2(((F_CPU) / 4e3) / 10);
			__ticks --;
     ab0:	ce 01       	movw	r24, r28
     ab2:	8e 5b       	subi	r24, 0xBE	; 190
     ab4:	9f 4f       	sbci	r25, 0xFF	; 255
     ab6:	9e 01       	movw	r18, r28
     ab8:	2e 5b       	subi	r18, 0xBE	; 190
     aba:	3f 4f       	sbci	r19, 0xFF	; 255
     abc:	f9 01       	movw	r30, r18
     abe:	20 81       	ld	r18, Z
     ac0:	31 81       	ldd	r19, Z+1	; 0x01
     ac2:	21 50       	subi	r18, 0x01	; 1
     ac4:	30 40       	sbci	r19, 0x00	; 0
     ac6:	fc 01       	movw	r30, r24
     ac8:	31 83       	std	Z+1, r19	; 0x01
     aca:	20 83       	st	Z, r18
		__ticks = 1;
	else if (__tmp > 65535)
	{
		//	__ticks = requested delay in 1/10 ms
		__ticks = (uint16_t) (__ms * 10.0);
		while(__ticks)
     acc:	ce 01       	movw	r24, r28
     ace:	8e 5b       	subi	r24, 0xBE	; 190
     ad0:	9f 4f       	sbci	r25, 0xFF	; 255
     ad2:	fc 01       	movw	r30, r24
     ad4:	80 81       	ld	r24, Z
     ad6:	91 81       	ldd	r25, Z+1	; 0x01
     ad8:	00 97       	sbiw	r24, 0x00	; 0
     ada:	89 f6       	brne	.-94     	; 0xa7e <LCD_Data+0x500>
     adc:	4b c0       	rjmp	.+150    	; 0xb74 <LCD_Data+0x5f6>
			__ticks --;
		}
		return;
	}
	else
		__ticks = (uint16_t)__tmp;
     ade:	8e 01       	movw	r16, r28
     ae0:	0e 5b       	subi	r16, 0xBE	; 190
     ae2:	1f 4f       	sbci	r17, 0xFF	; 255
     ae4:	ce 01       	movw	r24, r28
     ae6:	ce 96       	adiw	r24, 0x3e	; 62
     ae8:	fc 01       	movw	r30, r24
     aea:	60 81       	ld	r22, Z
     aec:	71 81       	ldd	r23, Z+1	; 0x01
     aee:	82 81       	ldd	r24, Z+2	; 0x02
     af0:	93 81       	ldd	r25, Z+3	; 0x03
     af2:	0e 94 7d 0c 	call	0x18fa	; 0x18fa <__fixunssfsi>
     af6:	dc 01       	movw	r26, r24
     af8:	cb 01       	movw	r24, r22
     afa:	f8 01       	movw	r30, r16
     afc:	91 83       	std	Z+1, r25	; 0x01
     afe:	80 83       	st	Z, r24
     b00:	ce 01       	movw	r24, r28
     b02:	8a 5b       	subi	r24, 0xBA	; 186
     b04:	9f 4f       	sbci	r25, 0xFF	; 255
     b06:	9e 01       	movw	r18, r28
     b08:	2e 5b       	subi	r18, 0xBE	; 190
     b0a:	3f 4f       	sbci	r19, 0xFF	; 255
     b0c:	f9 01       	movw	r30, r18
     b0e:	20 81       	ld	r18, Z
     b10:	31 81       	ldd	r19, Z+1	; 0x01
     b12:	fc 01       	movw	r30, r24
     b14:	31 83       	std	Z+1, r19	; 0x01
     b16:	20 83       	st	Z, r18
     b18:	ce 01       	movw	r24, r28
     b1a:	8a 5b       	subi	r24, 0xBA	; 186
     b1c:	9f 4f       	sbci	r25, 0xFF	; 255
     b1e:	fc 01       	movw	r30, r24
     b20:	80 81       	ld	r24, Z
     b22:	91 81       	ldd	r25, Z+1	; 0x01
     b24:	8c 01       	movw	r16, r24
     b26:	c8 01       	movw	r24, r16
     b28:	01 97       	sbiw	r24, 0x01	; 1
     b2a:	f1 f7       	brne	.-4      	; 0xb28 <LCD_Data+0x5aa>
     b2c:	8c 01       	movw	r16, r24
     b2e:	ce 01       	movw	r24, r28
     b30:	8a 5b       	subi	r24, 0xBA	; 186
     b32:	9f 4f       	sbci	r25, 0xFF	; 255
     b34:	fc 01       	movw	r30, r24
     b36:	11 83       	std	Z+1, r17	; 0x01
     b38:	00 83       	st	Z, r16
     b3a:	1c c0       	rjmp	.+56     	; 0xb74 <LCD_Data+0x5f6>
	{
		_delay_ms(__us / 1000.0);
		return;
	}
	else
		__ticks = (uint8_t)__tmp;
     b3c:	6d a9       	ldd	r22, Y+53	; 0x35
     b3e:	7e a9       	ldd	r23, Y+54	; 0x36
     b40:	8f a9       	ldd	r24, Y+55	; 0x37
     b42:	98 ad       	ldd	r25, Y+56	; 0x38
     b44:	0e 94 7d 0c 	call	0x18fa	; 0x18fa <__fixunssfsi>
     b48:	dc 01       	movw	r26, r24
     b4a:	cb 01       	movw	r24, r22
     b4c:	89 af       	std	Y+57, r24	; 0x39
     b4e:	ce 01       	movw	r24, r28
     b50:	88 5b       	subi	r24, 0xB8	; 184
     b52:	9f 4f       	sbci	r25, 0xFF	; 255
     b54:	29 ad       	ldd	r18, Y+57	; 0x39
     b56:	fc 01       	movw	r30, r24
     b58:	20 83       	st	Z, r18
    can be achieved.
*/
void
_delay_loop_1(uint8_t __count)
{
	__asm__ volatile (
     b5a:	ce 01       	movw	r24, r28
     b5c:	88 5b       	subi	r24, 0xB8	; 184
     b5e:	9f 4f       	sbci	r25, 0xFF	; 255
     b60:	fc 01       	movw	r30, r24
     b62:	80 81       	ld	r24, Z
     b64:	18 2f       	mov	r17, r24
     b66:	1a 95       	dec	r17
     b68:	f1 f7       	brne	.-4      	; 0xb66 <LCD_Data+0x5e8>
     b6a:	ce 01       	movw	r24, r28
     b6c:	88 5b       	subi	r24, 0xB8	; 184
     b6e:	9f 4f       	sbci	r25, 0xFF	; 255
     b70:	fc 01       	movw	r30, r24
     b72:	10 83       	st	Z, r17
	_delay_us(50);
}
     b74:	c7 5b       	subi	r28, 0xB7	; 183
     b76:	df 4f       	sbci	r29, 0xFF	; 255
     b78:	0f b6       	in	r0, 0x3f	; 63
     b7a:	f8 94       	cli
     b7c:	de bf       	out	0x3e, r29	; 62
     b7e:	0f be       	out	0x3f, r0	; 63
     b80:	cd bf       	out	0x3d, r28	; 61
     b82:	cf 91       	pop	r28
     b84:	df 91       	pop	r29
     b86:	1f 91       	pop	r17
     b88:	0f 91       	pop	r16
     b8a:	08 95       	ret

00000b8c <InitLCD>:

//Init LCD
void InitLCD()
{
     b8c:	0f 93       	push	r16
     b8e:	1f 93       	push	r17
     b90:	df 93       	push	r29
     b92:	cf 93       	push	r28
     b94:	cd b7       	in	r28, 0x3d	; 61
     b96:	de b7       	in	r29, 0x3e	; 62
     b98:	cc 54       	subi	r28, 0x4C	; 76
     b9a:	d0 40       	sbci	r29, 0x00	; 0
     b9c:	0f b6       	in	r0, 0x3f	; 63
     b9e:	f8 94       	cli
     ba0:	de bf       	out	0x3e, r29	; 62
     ba2:	0f be       	out	0x3f, r0	; 63
     ba4:	cd bf       	out	0x3d, r28	; 61
	LCD_DATA = 0x00;
     ba6:	8b e3       	ldi	r24, 0x3B	; 59
     ba8:	90 e0       	ldi	r25, 0x00	; 0
     baa:	fc 01       	movw	r30, r24
     bac:	10 82       	st	Z, r1
	LCD_STRU = 0x00;
     bae:	85 e3       	ldi	r24, 0x35	; 53
     bb0:	90 e0       	ldi	r25, 0x00	; 0
     bb2:	fc 01       	movw	r30, r24
     bb4:	10 82       	st	Z, r1
     bb6:	80 e0       	ldi	r24, 0x00	; 0
     bb8:	90 e0       	ldi	r25, 0x00	; 0
     bba:	a8 ec       	ldi	r26, 0xC8	; 200
     bbc:	b2 e4       	ldi	r27, 0x42	; 66
     bbe:	89 83       	std	Y+1, r24	; 0x01
     bc0:	9a 83       	std	Y+2, r25	; 0x02
     bc2:	ab 83       	std	Y+3, r26	; 0x03
     bc4:	bc 83       	std	Y+4, r27	; 0x04
	#endif

	__builtin_avr_delay_cycles(__ticks_dc);

#elif !__HAS_DELAY_CYCLES || (__HAS_DELAY_CYCLES && !defined(__OPTIMIZE__)) || defined (__DELAY_BACKWARD_COMPATIBLE__)
	__tmp = ((F_CPU) / 4e3) * __ms;
     bc6:	69 81       	ldd	r22, Y+1	; 0x01
     bc8:	7a 81       	ldd	r23, Y+2	; 0x02
     bca:	8b 81       	ldd	r24, Y+3	; 0x03
     bcc:	9c 81       	ldd	r25, Y+4	; 0x04
     bce:	20 e0       	ldi	r18, 0x00	; 0
     bd0:	30 e0       	ldi	r19, 0x00	; 0
     bd2:	4a e7       	ldi	r20, 0x7A	; 122
     bd4:	55 e4       	ldi	r21, 0x45	; 69
     bd6:	0e 94 51 0e 	call	0x1ca2	; 0x1ca2 <__mulsf3>
     bda:	dc 01       	movw	r26, r24
     bdc:	cb 01       	movw	r24, r22
     bde:	8d 83       	std	Y+5, r24	; 0x05
     be0:	9e 83       	std	Y+6, r25	; 0x06
     be2:	af 83       	std	Y+7, r26	; 0x07
     be4:	b8 87       	std	Y+8, r27	; 0x08
	if (__tmp < 1.0)
     be6:	11 e0       	ldi	r17, 0x01	; 1
     be8:	6d 81       	ldd	r22, Y+5	; 0x05
     bea:	7e 81       	ldd	r23, Y+6	; 0x06
     bec:	8f 81       	ldd	r24, Y+7	; 0x07
     bee:	98 85       	ldd	r25, Y+8	; 0x08
     bf0:	20 e0       	ldi	r18, 0x00	; 0
     bf2:	30 e0       	ldi	r19, 0x00	; 0
     bf4:	40 e8       	ldi	r20, 0x80	; 128
     bf6:	5f e3       	ldi	r21, 0x3F	; 63
     bf8:	0e 94 59 10 	call	0x20b2	; 0x20b2 <__ltsf2>
     bfc:	88 23       	and	r24, r24
     bfe:	0c f0       	brlt	.+2      	; 0xc02 <InitLCD+0x76>
     c00:	10 e0       	ldi	r17, 0x00	; 0
     c02:	11 23       	and	r17, r17
     c04:	29 f0       	breq	.+10     	; 0xc10 <InitLCD+0x84>
		__ticks = 1;
     c06:	81 e0       	ldi	r24, 0x01	; 1
     c08:	90 e0       	ldi	r25, 0x00	; 0
     c0a:	9a 87       	std	Y+10, r25	; 0x0a
     c0c:	89 87       	std	Y+9, r24	; 0x09
     c0e:	46 c0       	rjmp	.+140    	; 0xc9c <InitLCD+0x110>
	else if (__tmp > 65535)
     c10:	11 e0       	ldi	r17, 0x01	; 1
     c12:	6d 81       	ldd	r22, Y+5	; 0x05
     c14:	7e 81       	ldd	r23, Y+6	; 0x06
     c16:	8f 81       	ldd	r24, Y+7	; 0x07
     c18:	98 85       	ldd	r25, Y+8	; 0x08
     c1a:	20 e0       	ldi	r18, 0x00	; 0
     c1c:	3f ef       	ldi	r19, 0xFF	; 255
     c1e:	4f e7       	ldi	r20, 0x7F	; 127
     c20:	57 e4       	ldi	r21, 0x47	; 71
     c22:	0e 94 f9 0f 	call	0x1ff2	; 0x1ff2 <__gtsf2>
     c26:	18 16       	cp	r1, r24
     c28:	0c f0       	brlt	.+2      	; 0xc2c <InitLCD+0xa0>
     c2a:	10 e0       	ldi	r17, 0x00	; 0
     c2c:	11 23       	and	r17, r17
     c2e:	61 f1       	breq	.+88     	; 0xc88 <InitLCD+0xfc>
	{
		//	__ticks = requested delay in 1/10 ms
		__ticks = (uint16_t) (__ms * 10.0);
     c30:	69 81       	ldd	r22, Y+1	; 0x01
     c32:	7a 81       	ldd	r23, Y+2	; 0x02
     c34:	8b 81       	ldd	r24, Y+3	; 0x03
     c36:	9c 81       	ldd	r25, Y+4	; 0x04
     c38:	20 e0       	ldi	r18, 0x00	; 0
     c3a:	30 e0       	ldi	r19, 0x00	; 0
     c3c:	40 e2       	ldi	r20, 0x20	; 32
     c3e:	51 e4       	ldi	r21, 0x41	; 65
     c40:	0e 94 51 0e 	call	0x1ca2	; 0x1ca2 <__mulsf3>
     c44:	dc 01       	movw	r26, r24
     c46:	cb 01       	movw	r24, r22
     c48:	bc 01       	movw	r22, r24
     c4a:	cd 01       	movw	r24, r26
     c4c:	0e 94 7d 0c 	call	0x18fa	; 0x18fa <__fixunssfsi>
     c50:	dc 01       	movw	r26, r24
     c52:	cb 01       	movw	r24, r22
     c54:	9a 87       	std	Y+10, r25	; 0x0a
     c56:	89 87       	std	Y+9, r24	; 0x09
     c58:	12 c0       	rjmp	.+36     	; 0xc7e <InitLCD+0xf2>
     c5a:	80 e9       	ldi	r24, 0x90	; 144
     c5c:	91 e0       	ldi	r25, 0x01	; 1
     c5e:	9c 87       	std	Y+12, r25	; 0x0c
     c60:	8b 87       	std	Y+11, r24	; 0x0b
    milliseconds can be achieved.
 */
void
_delay_loop_2(uint16_t __count)
{
	__asm__ volatile (
     c62:	8b 85       	ldd	r24, Y+11	; 0x0b
     c64:	9c 85       	ldd	r25, Y+12	; 0x0c
     c66:	8c 01       	movw	r16, r24
     c68:	c8 01       	movw	r24, r16
     c6a:	01 97       	sbiw	r24, 0x01	; 1
     c6c:	f1 f7       	brne	.-4      	; 0xc6a <InitLCD+0xde>
     c6e:	8c 01       	movw	r16, r24
     c70:	1c 87       	std	Y+12, r17	; 0x0c
     c72:	0b 87       	std	Y+11, r16	; 0x0b
		while(__ticks)
		{
			// wait 1/10 ms
			_delay_loop_2(((F_CPU) / 4e3) / 10);
			__ticks --;
     c74:	89 85       	ldd	r24, Y+9	; 0x09
     c76:	9a 85       	ldd	r25, Y+10	; 0x0a
     c78:	01 97       	sbiw	r24, 0x01	; 1
     c7a:	9a 87       	std	Y+10, r25	; 0x0a
     c7c:	89 87       	std	Y+9, r24	; 0x09
		__ticks = 1;
	else if (__tmp > 65535)
	{
		//	__ticks = requested delay in 1/10 ms
		__ticks = (uint16_t) (__ms * 10.0);
		while(__ticks)
     c7e:	89 85       	ldd	r24, Y+9	; 0x09
     c80:	9a 85       	ldd	r25, Y+10	; 0x0a
     c82:	00 97       	sbiw	r24, 0x00	; 0
     c84:	51 f7       	brne	.-44     	; 0xc5a <InitLCD+0xce>
     c86:	17 c0       	rjmp	.+46     	; 0xcb6 <InitLCD+0x12a>
			__ticks --;
		}
		return;
	}
	else
		__ticks = (uint16_t)__tmp;
     c88:	6d 81       	ldd	r22, Y+5	; 0x05
     c8a:	7e 81       	ldd	r23, Y+6	; 0x06
     c8c:	8f 81       	ldd	r24, Y+7	; 0x07
     c8e:	98 85       	ldd	r25, Y+8	; 0x08
     c90:	0e 94 7d 0c 	call	0x18fa	; 0x18fa <__fixunssfsi>
     c94:	dc 01       	movw	r26, r24
     c96:	cb 01       	movw	r24, r22
     c98:	9a 87       	std	Y+10, r25	; 0x0a
     c9a:	89 87       	std	Y+9, r24	; 0x09
     c9c:	89 85       	ldd	r24, Y+9	; 0x09
     c9e:	9a 85       	ldd	r25, Y+10	; 0x0a
     ca0:	9e 87       	std	Y+14, r25	; 0x0e
     ca2:	8d 87       	std	Y+13, r24	; 0x0d
     ca4:	8d 85       	ldd	r24, Y+13	; 0x0d
     ca6:	9e 85       	ldd	r25, Y+14	; 0x0e
     ca8:	8c 01       	movw	r16, r24
     caa:	f8 01       	movw	r30, r16
     cac:	31 97       	sbiw	r30, 0x01	; 1
     cae:	f1 f7       	brne	.-4      	; 0xcac <InitLCD+0x120>
     cb0:	8f 01       	movw	r16, r30
     cb2:	1e 87       	std	Y+14, r17	; 0x0e
     cb4:	0d 87       	std	Y+13, r16	; 0x0d
	_delay_ms(100);

	//Function set
	LCD_Command(0x3C);
     cb6:	8c e3       	ldi	r24, 0x3C	; 60
     cb8:	0e 94 67 00 	call	0xce	; 0xce <LCD_Command>
     cbc:	80 e0       	ldi	r24, 0x00	; 0
     cbe:	90 e0       	ldi	r25, 0x00	; 0
     cc0:	a0 e2       	ldi	r26, 0x20	; 32
     cc2:	b1 e4       	ldi	r27, 0x41	; 65
     cc4:	8f 87       	std	Y+15, r24	; 0x0f
     cc6:	98 8b       	std	Y+16, r25	; 0x10
     cc8:	a9 8b       	std	Y+17, r26	; 0x11
     cca:	ba 8b       	std	Y+18, r27	; 0x12
	#endif

	__builtin_avr_delay_cycles(__ticks_dc);

#elif !__HAS_DELAY_CYCLES || (__HAS_DELAY_CYCLES && !defined(__OPTIMIZE__)) || defined (__DELAY_BACKWARD_COMPATIBLE__)
	__tmp = ((F_CPU) / 4e3) * __ms;
     ccc:	6f 85       	ldd	r22, Y+15	; 0x0f
     cce:	78 89       	ldd	r23, Y+16	; 0x10
     cd0:	89 89       	ldd	r24, Y+17	; 0x11
     cd2:	9a 89       	ldd	r25, Y+18	; 0x12
     cd4:	20 e0       	ldi	r18, 0x00	; 0
     cd6:	30 e0       	ldi	r19, 0x00	; 0
     cd8:	4a e7       	ldi	r20, 0x7A	; 122
     cda:	55 e4       	ldi	r21, 0x45	; 69
     cdc:	0e 94 51 0e 	call	0x1ca2	; 0x1ca2 <__mulsf3>
     ce0:	dc 01       	movw	r26, r24
     ce2:	cb 01       	movw	r24, r22
     ce4:	8b 8b       	std	Y+19, r24	; 0x13
     ce6:	9c 8b       	std	Y+20, r25	; 0x14
     ce8:	ad 8b       	std	Y+21, r26	; 0x15
     cea:	be 8b       	std	Y+22, r27	; 0x16
	if (__tmp < 1.0)
     cec:	11 e0       	ldi	r17, 0x01	; 1
     cee:	6b 89       	ldd	r22, Y+19	; 0x13
     cf0:	7c 89       	ldd	r23, Y+20	; 0x14
     cf2:	8d 89       	ldd	r24, Y+21	; 0x15
     cf4:	9e 89       	ldd	r25, Y+22	; 0x16
     cf6:	20 e0       	ldi	r18, 0x00	; 0
     cf8:	30 e0       	ldi	r19, 0x00	; 0
     cfa:	40 e8       	ldi	r20, 0x80	; 128
     cfc:	5f e3       	ldi	r21, 0x3F	; 63
     cfe:	0e 94 59 10 	call	0x20b2	; 0x20b2 <__ltsf2>
     d02:	88 23       	and	r24, r24
     d04:	0c f0       	brlt	.+2      	; 0xd08 <InitLCD+0x17c>
     d06:	10 e0       	ldi	r17, 0x00	; 0
     d08:	11 23       	and	r17, r17
     d0a:	29 f0       	breq	.+10     	; 0xd16 <InitLCD+0x18a>
		__ticks = 1;
     d0c:	81 e0       	ldi	r24, 0x01	; 1
     d0e:	90 e0       	ldi	r25, 0x00	; 0
     d10:	98 8f       	std	Y+24, r25	; 0x18
     d12:	8f 8b       	std	Y+23, r24	; 0x17
     d14:	46 c0       	rjmp	.+140    	; 0xda2 <InitLCD+0x216>
	else if (__tmp > 65535)
     d16:	11 e0       	ldi	r17, 0x01	; 1
     d18:	6b 89       	ldd	r22, Y+19	; 0x13
     d1a:	7c 89       	ldd	r23, Y+20	; 0x14
     d1c:	8d 89       	ldd	r24, Y+21	; 0x15
     d1e:	9e 89       	ldd	r25, Y+22	; 0x16
     d20:	20 e0       	ldi	r18, 0x00	; 0
     d22:	3f ef       	ldi	r19, 0xFF	; 255
     d24:	4f e7       	ldi	r20, 0x7F	; 127
     d26:	57 e4       	ldi	r21, 0x47	; 71
     d28:	0e 94 f9 0f 	call	0x1ff2	; 0x1ff2 <__gtsf2>
     d2c:	18 16       	cp	r1, r24
     d2e:	0c f0       	brlt	.+2      	; 0xd32 <InitLCD+0x1a6>
     d30:	10 e0       	ldi	r17, 0x00	; 0
     d32:	11 23       	and	r17, r17
     d34:	61 f1       	breq	.+88     	; 0xd8e <InitLCD+0x202>
	{
		//	__ticks = requested delay in 1/10 ms
		__ticks = (uint16_t) (__ms * 10.0);
     d36:	6f 85       	ldd	r22, Y+15	; 0x0f
     d38:	78 89       	ldd	r23, Y+16	; 0x10
     d3a:	89 89       	ldd	r24, Y+17	; 0x11
     d3c:	9a 89       	ldd	r25, Y+18	; 0x12
     d3e:	20 e0       	ldi	r18, 0x00	; 0
     d40:	30 e0       	ldi	r19, 0x00	; 0
     d42:	40 e2       	ldi	r20, 0x20	; 32
     d44:	51 e4       	ldi	r21, 0x41	; 65
     d46:	0e 94 51 0e 	call	0x1ca2	; 0x1ca2 <__mulsf3>
     d4a:	dc 01       	movw	r26, r24
     d4c:	cb 01       	movw	r24, r22
     d4e:	bc 01       	movw	r22, r24
     d50:	cd 01       	movw	r24, r26
     d52:	0e 94 7d 0c 	call	0x18fa	; 0x18fa <__fixunssfsi>
     d56:	dc 01       	movw	r26, r24
     d58:	cb 01       	movw	r24, r22
     d5a:	98 8f       	std	Y+24, r25	; 0x18
     d5c:	8f 8b       	std	Y+23, r24	; 0x17
     d5e:	12 c0       	rjmp	.+36     	; 0xd84 <InitLCD+0x1f8>
     d60:	80 e9       	ldi	r24, 0x90	; 144
     d62:	91 e0       	ldi	r25, 0x01	; 1
     d64:	9a 8f       	std	Y+26, r25	; 0x1a
     d66:	89 8f       	std	Y+25, r24	; 0x19
     d68:	89 8d       	ldd	r24, Y+25	; 0x19
     d6a:	9a 8d       	ldd	r25, Y+26	; 0x1a
     d6c:	8c 01       	movw	r16, r24
     d6e:	c8 01       	movw	r24, r16
     d70:	01 97       	sbiw	r24, 0x01	; 1
     d72:	f1 f7       	brne	.-4      	; 0xd70 <InitLCD+0x1e4>
     d74:	8c 01       	movw	r16, r24
     d76:	1a 8f       	std	Y+26, r17	; 0x1a
     d78:	09 8f       	std	Y+25, r16	; 0x19
		while(__ticks)
		{
			// wait 1/10 ms
			_delay_loop_2(((F_CPU) / 4e3) / 10);
			__ticks --;
     d7a:	8f 89       	ldd	r24, Y+23	; 0x17
     d7c:	98 8d       	ldd	r25, Y+24	; 0x18
     d7e:	01 97       	sbiw	r24, 0x01	; 1
     d80:	98 8f       	std	Y+24, r25	; 0x18
     d82:	8f 8b       	std	Y+23, r24	; 0x17
		__ticks = 1;
	else if (__tmp > 65535)
	{
		//	__ticks = requested delay in 1/10 ms
		__ticks = (uint16_t) (__ms * 10.0);
		while(__ticks)
     d84:	8f 89       	ldd	r24, Y+23	; 0x17
     d86:	98 8d       	ldd	r25, Y+24	; 0x18
     d88:	00 97       	sbiw	r24, 0x00	; 0
     d8a:	51 f7       	brne	.-44     	; 0xd60 <InitLCD+0x1d4>
     d8c:	17 c0       	rjmp	.+46     	; 0xdbc <InitLCD+0x230>
			__ticks --;
		}
		return;
	}
	else
		__ticks = (uint16_t)__tmp;
     d8e:	6b 89       	ldd	r22, Y+19	; 0x13
     d90:	7c 89       	ldd	r23, Y+20	; 0x14
     d92:	8d 89       	ldd	r24, Y+21	; 0x15
     d94:	9e 89       	ldd	r25, Y+22	; 0x16
     d96:	0e 94 7d 0c 	call	0x18fa	; 0x18fa <__fixunssfsi>
     d9a:	dc 01       	movw	r26, r24
     d9c:	cb 01       	movw	r24, r22
     d9e:	98 8f       	std	Y+24, r25	; 0x18
     da0:	8f 8b       	std	Y+23, r24	; 0x17
     da2:	8f 89       	ldd	r24, Y+23	; 0x17
     da4:	98 8d       	ldd	r25, Y+24	; 0x18
     da6:	9c 8f       	std	Y+28, r25	; 0x1c
     da8:	8b 8f       	std	Y+27, r24	; 0x1b
     daa:	8b 8d       	ldd	r24, Y+27	; 0x1b
     dac:	9c 8d       	ldd	r25, Y+28	; 0x1c
     dae:	8c 01       	movw	r16, r24
     db0:	f8 01       	movw	r30, r16
     db2:	31 97       	sbiw	r30, 0x01	; 1
     db4:	f1 f7       	brne	.-4      	; 0xdb2 <InitLCD+0x226>
     db6:	8f 01       	movw	r16, r30
     db8:	1c 8f       	std	Y+28, r17	; 0x1c
     dba:	0b 8f       	std	Y+27, r16	; 0x1b
	_delay_ms(10);

	//Function set
	LCD_Command(0x3C);
     dbc:	8c e3       	ldi	r24, 0x3C	; 60
     dbe:	0e 94 67 00 	call	0xce	; 0xce <LCD_Command>
     dc2:	80 e0       	ldi	r24, 0x00	; 0
     dc4:	90 e0       	ldi	r25, 0x00	; 0
     dc6:	a8 ec       	ldi	r26, 0xC8	; 200
     dc8:	b2 e4       	ldi	r27, 0x42	; 66
     dca:	8d 8f       	std	Y+29, r24	; 0x1d
     dcc:	9e 8f       	std	Y+30, r25	; 0x1e
     dce:	af 8f       	std	Y+31, r26	; 0x1f
     dd0:	b8 a3       	std	Y+32, r27	; 0x20
	#endif

	__builtin_avr_delay_cycles(__ticks_dc);

#elif !__HAS_DELAY_CYCLES || (__HAS_DELAY_CYCLES && !defined(__OPTIMIZE__)) || defined (__DELAY_BACKWARD_COMPATIBLE__)
	__tmp = ((F_CPU) / 3e6) * __us;
     dd2:	6d 8d       	ldd	r22, Y+29	; 0x1d
     dd4:	7e 8d       	ldd	r23, Y+30	; 0x1e
     dd6:	8f 8d       	ldd	r24, Y+31	; 0x1f
     dd8:	98 a1       	ldd	r25, Y+32	; 0x20
     dda:	2b ea       	ldi	r18, 0xAB	; 171
     ddc:	3a ea       	ldi	r19, 0xAA	; 170
     dde:	4a ea       	ldi	r20, 0xAA	; 170
     de0:	50 e4       	ldi	r21, 0x40	; 64
     de2:	0e 94 51 0e 	call	0x1ca2	; 0x1ca2 <__mulsf3>
     de6:	dc 01       	movw	r26, r24
     de8:	cb 01       	movw	r24, r22
     dea:	89 a3       	std	Y+33, r24	; 0x21
     dec:	9a a3       	std	Y+34, r25	; 0x22
     dee:	ab a3       	std	Y+35, r26	; 0x23
     df0:	bc a3       	std	Y+36, r27	; 0x24
	if (__tmp < 1.0)
     df2:	11 e0       	ldi	r17, 0x01	; 1
     df4:	69 a1       	ldd	r22, Y+33	; 0x21
     df6:	7a a1       	ldd	r23, Y+34	; 0x22
     df8:	8b a1       	ldd	r24, Y+35	; 0x23
     dfa:	9c a1       	ldd	r25, Y+36	; 0x24
     dfc:	20 e0       	ldi	r18, 0x00	; 0
     dfe:	30 e0       	ldi	r19, 0x00	; 0
     e00:	40 e8       	ldi	r20, 0x80	; 128
     e02:	5f e3       	ldi	r21, 0x3F	; 63
     e04:	0e 94 59 10 	call	0x20b2	; 0x20b2 <__ltsf2>
     e08:	88 23       	and	r24, r24
     e0a:	0c f0       	brlt	.+2      	; 0xe0e <InitLCD+0x282>
     e0c:	10 e0       	ldi	r17, 0x00	; 0
     e0e:	11 23       	and	r17, r17
     e10:	19 f0       	breq	.+6      	; 0xe18 <InitLCD+0x28c>
		__ticks = 1;
     e12:	81 e0       	ldi	r24, 0x01	; 1
     e14:	8d a3       	std	Y+37, r24	; 0x25
     e16:	a3 c0       	rjmp	.+326    	; 0xf5e <InitLCD+0x3d2>
	else if (__tmp > 255)
     e18:	11 e0       	ldi	r17, 0x01	; 1
     e1a:	69 a1       	ldd	r22, Y+33	; 0x21
     e1c:	7a a1       	ldd	r23, Y+34	; 0x22
     e1e:	8b a1       	ldd	r24, Y+35	; 0x23
     e20:	9c a1       	ldd	r25, Y+36	; 0x24
     e22:	20 e0       	ldi	r18, 0x00	; 0
     e24:	30 e0       	ldi	r19, 0x00	; 0
     e26:	4f e7       	ldi	r20, 0x7F	; 127
     e28:	53 e4       	ldi	r21, 0x43	; 67
     e2a:	0e 94 f9 0f 	call	0x1ff2	; 0x1ff2 <__gtsf2>
     e2e:	18 16       	cp	r1, r24
     e30:	0c f0       	brlt	.+2      	; 0xe34 <InitLCD+0x2a8>
     e32:	10 e0       	ldi	r17, 0x00	; 0
     e34:	11 23       	and	r17, r17
     e36:	09 f4       	brne	.+2      	; 0xe3a <InitLCD+0x2ae>
     e38:	89 c0       	rjmp	.+274    	; 0xf4c <InitLCD+0x3c0>
	{
		_delay_ms(__us / 1000.0);
     e3a:	6d 8d       	ldd	r22, Y+29	; 0x1d
     e3c:	7e 8d       	ldd	r23, Y+30	; 0x1e
     e3e:	8f 8d       	ldd	r24, Y+31	; 0x1f
     e40:	98 a1       	ldd	r25, Y+32	; 0x20
     e42:	20 e0       	ldi	r18, 0x00	; 0
     e44:	30 e0       	ldi	r19, 0x00	; 0
     e46:	4a e7       	ldi	r20, 0x7A	; 122
     e48:	54 e4       	ldi	r21, 0x44	; 68
     e4a:	0e 94 4b 0f 	call	0x1e96	; 0x1e96 <__divsf3>
     e4e:	dc 01       	movw	r26, r24
     e50:	cb 01       	movw	r24, r22
     e52:	8e a3       	std	Y+38, r24	; 0x26
     e54:	9f a3       	std	Y+39, r25	; 0x27
     e56:	a8 a7       	std	Y+40, r26	; 0x28
     e58:	b9 a7       	std	Y+41, r27	; 0x29
	#endif

	__builtin_avr_delay_cycles(__ticks_dc);

#elif !__HAS_DELAY_CYCLES || (__HAS_DELAY_CYCLES && !defined(__OPTIMIZE__)) || defined (__DELAY_BACKWARD_COMPATIBLE__)
	__tmp = ((F_CPU) / 4e3) * __ms;
     e5a:	6e a1       	ldd	r22, Y+38	; 0x26
     e5c:	7f a1       	ldd	r23, Y+39	; 0x27
     e5e:	88 a5       	ldd	r24, Y+40	; 0x28
     e60:	99 a5       	ldd	r25, Y+41	; 0x29
     e62:	20 e0       	ldi	r18, 0x00	; 0
     e64:	30 e0       	ldi	r19, 0x00	; 0
     e66:	4a e7       	ldi	r20, 0x7A	; 122
     e68:	55 e4       	ldi	r21, 0x45	; 69
     e6a:	0e 94 51 0e 	call	0x1ca2	; 0x1ca2 <__mulsf3>
     e6e:	dc 01       	movw	r26, r24
     e70:	cb 01       	movw	r24, r22
     e72:	8a a7       	std	Y+42, r24	; 0x2a
     e74:	9b a7       	std	Y+43, r25	; 0x2b
     e76:	ac a7       	std	Y+44, r26	; 0x2c
     e78:	bd a7       	std	Y+45, r27	; 0x2d
	if (__tmp < 1.0)
     e7a:	11 e0       	ldi	r17, 0x01	; 1
     e7c:	6a a5       	ldd	r22, Y+42	; 0x2a
     e7e:	7b a5       	ldd	r23, Y+43	; 0x2b
     e80:	8c a5       	ldd	r24, Y+44	; 0x2c
     e82:	9d a5       	ldd	r25, Y+45	; 0x2d
     e84:	20 e0       	ldi	r18, 0x00	; 0
     e86:	30 e0       	ldi	r19, 0x00	; 0
     e88:	40 e8       	ldi	r20, 0x80	; 128
     e8a:	5f e3       	ldi	r21, 0x3F	; 63
     e8c:	0e 94 59 10 	call	0x20b2	; 0x20b2 <__ltsf2>
     e90:	88 23       	and	r24, r24
     e92:	0c f0       	brlt	.+2      	; 0xe96 <InitLCD+0x30a>
     e94:	10 e0       	ldi	r17, 0x00	; 0
     e96:	11 23       	and	r17, r17
     e98:	29 f0       	breq	.+10     	; 0xea4 <InitLCD+0x318>
		__ticks = 1;
     e9a:	81 e0       	ldi	r24, 0x01	; 1
     e9c:	90 e0       	ldi	r25, 0x00	; 0
     e9e:	9f a7       	std	Y+47, r25	; 0x2f
     ea0:	8e a7       	std	Y+46, r24	; 0x2e
     ea2:	46 c0       	rjmp	.+140    	; 0xf30 <InitLCD+0x3a4>
	else if (__tmp > 65535)
     ea4:	11 e0       	ldi	r17, 0x01	; 1
     ea6:	6a a5       	ldd	r22, Y+42	; 0x2a
     ea8:	7b a5       	ldd	r23, Y+43	; 0x2b
     eaa:	8c a5       	ldd	r24, Y+44	; 0x2c
     eac:	9d a5       	ldd	r25, Y+45	; 0x2d
     eae:	20 e0       	ldi	r18, 0x00	; 0
     eb0:	3f ef       	ldi	r19, 0xFF	; 255
     eb2:	4f e7       	ldi	r20, 0x7F	; 127
     eb4:	57 e4       	ldi	r21, 0x47	; 71
     eb6:	0e 94 f9 0f 	call	0x1ff2	; 0x1ff2 <__gtsf2>
     eba:	18 16       	cp	r1, r24
     ebc:	0c f0       	brlt	.+2      	; 0xec0 <InitLCD+0x334>
     ebe:	10 e0       	ldi	r17, 0x00	; 0
     ec0:	11 23       	and	r17, r17
     ec2:	61 f1       	breq	.+88     	; 0xf1c <InitLCD+0x390>
	{
		//	__ticks = requested delay in 1/10 ms
		__ticks = (uint16_t) (__ms * 10.0);
     ec4:	6e a1       	ldd	r22, Y+38	; 0x26
     ec6:	7f a1       	ldd	r23, Y+39	; 0x27
     ec8:	88 a5       	ldd	r24, Y+40	; 0x28
     eca:	99 a5       	ldd	r25, Y+41	; 0x29
     ecc:	20 e0       	ldi	r18, 0x00	; 0
     ece:	30 e0       	ldi	r19, 0x00	; 0
     ed0:	40 e2       	ldi	r20, 0x20	; 32
     ed2:	51 e4       	ldi	r21, 0x41	; 65
     ed4:	0e 94 51 0e 	call	0x1ca2	; 0x1ca2 <__mulsf3>
     ed8:	dc 01       	movw	r26, r24
     eda:	cb 01       	movw	r24, r22
     edc:	bc 01       	movw	r22, r24
     ede:	cd 01       	movw	r24, r26
     ee0:	0e 94 7d 0c 	call	0x18fa	; 0x18fa <__fixunssfsi>
     ee4:	dc 01       	movw	r26, r24
     ee6:	cb 01       	movw	r24, r22
     ee8:	9f a7       	std	Y+47, r25	; 0x2f
     eea:	8e a7       	std	Y+46, r24	; 0x2e
     eec:	12 c0       	rjmp	.+36     	; 0xf12 <InitLCD+0x386>
     eee:	80 e9       	ldi	r24, 0x90	; 144
     ef0:	91 e0       	ldi	r25, 0x01	; 1
     ef2:	99 ab       	std	Y+49, r25	; 0x31
     ef4:	88 ab       	std	Y+48, r24	; 0x30
     ef6:	88 a9       	ldd	r24, Y+48	; 0x30
     ef8:	99 a9       	ldd	r25, Y+49	; 0x31
     efa:	8c 01       	movw	r16, r24
     efc:	c8 01       	movw	r24, r16
     efe:	01 97       	sbiw	r24, 0x01	; 1
     f00:	f1 f7       	brne	.-4      	; 0xefe <InitLCD+0x372>
     f02:	8c 01       	movw	r16, r24
     f04:	19 ab       	std	Y+49, r17	; 0x31
     f06:	08 ab       	std	Y+48, r16	; 0x30
		while(__ticks)
		{
			// wait 1/10 ms
			_delay_loop_2(((F_CPU) / 4e3) / 10);
			__ticks --;
     f08:	8e a5       	ldd	r24, Y+46	; 0x2e
     f0a:	9f a5       	ldd	r25, Y+47	; 0x2f
     f0c:	01 97       	sbiw	r24, 0x01	; 1
     f0e:	9f a7       	std	Y+47, r25	; 0x2f
     f10:	8e a7       	std	Y+46, r24	; 0x2e
		__ticks = 1;
	else if (__tmp > 65535)
	{
		//	__ticks = requested delay in 1/10 ms
		__ticks = (uint16_t) (__ms * 10.0);
		while(__ticks)
     f12:	8e a5       	ldd	r24, Y+46	; 0x2e
     f14:	9f a5       	ldd	r25, Y+47	; 0x2f
     f16:	00 97       	sbiw	r24, 0x00	; 0
     f18:	51 f7       	brne	.-44     	; 0xeee <InitLCD+0x362>
     f1a:	28 c0       	rjmp	.+80     	; 0xf6c <InitLCD+0x3e0>
			__ticks --;
		}
		return;
	}
	else
		__ticks = (uint16_t)__tmp;
     f1c:	6a a5       	ldd	r22, Y+42	; 0x2a
     f1e:	7b a5       	ldd	r23, Y+43	; 0x2b
     f20:	8c a5       	ldd	r24, Y+44	; 0x2c
     f22:	9d a5       	ldd	r25, Y+45	; 0x2d
     f24:	0e 94 7d 0c 	call	0x18fa	; 0x18fa <__fixunssfsi>
     f28:	dc 01       	movw	r26, r24
     f2a:	cb 01       	movw	r24, r22
     f2c:	9f a7       	std	Y+47, r25	; 0x2f
     f2e:	8e a7       	std	Y+46, r24	; 0x2e
     f30:	8e a5       	ldd	r24, Y+46	; 0x2e
     f32:	9f a5       	ldd	r25, Y+47	; 0x2f
     f34:	9b ab       	std	Y+51, r25	; 0x33
     f36:	8a ab       	std	Y+50, r24	; 0x32
     f38:	8a a9       	ldd	r24, Y+50	; 0x32
     f3a:	9b a9       	ldd	r25, Y+51	; 0x33
     f3c:	8c 01       	movw	r16, r24
     f3e:	f8 01       	movw	r30, r16
     f40:	31 97       	sbiw	r30, 0x01	; 1
     f42:	f1 f7       	brne	.-4      	; 0xf40 <InitLCD+0x3b4>
     f44:	8f 01       	movw	r16, r30
     f46:	1b ab       	std	Y+51, r17	; 0x33
     f48:	0a ab       	std	Y+50, r16	; 0x32
     f4a:	10 c0       	rjmp	.+32     	; 0xf6c <InitLCD+0x3e0>
	{
		_delay_ms(__us / 1000.0);
		return;
	}
	else
		__ticks = (uint8_t)__tmp;
     f4c:	69 a1       	ldd	r22, Y+33	; 0x21
     f4e:	7a a1       	ldd	r23, Y+34	; 0x22
     f50:	8b a1       	ldd	r24, Y+35	; 0x23
     f52:	9c a1       	ldd	r25, Y+36	; 0x24
     f54:	0e 94 7d 0c 	call	0x18fa	; 0x18fa <__fixunssfsi>
     f58:	dc 01       	movw	r26, r24
     f5a:	cb 01       	movw	r24, r22
     f5c:	8d a3       	std	Y+37, r24	; 0x25
     f5e:	8d a1       	ldd	r24, Y+37	; 0x25
     f60:	8c ab       	std	Y+52, r24	; 0x34
    can be achieved.
*/
void
_delay_loop_1(uint8_t __count)
{
	__asm__ volatile (
     f62:	8c a9       	ldd	r24, Y+52	; 0x34
     f64:	18 2f       	mov	r17, r24
     f66:	1a 95       	dec	r17
     f68:	f1 f7       	brne	.-4      	; 0xf66 <InitLCD+0x3da>
     f6a:	1c ab       	std	Y+52, r17	; 0x34
	_delay_us(100);

	LCD_Command(0x3C);
     f6c:	8c e3       	ldi	r24, 0x3C	; 60
     f6e:	0e 94 67 00 	call	0xce	; 0xce <LCD_Command>
     f72:	80 e0       	ldi	r24, 0x00	; 0
     f74:	90 e0       	ldi	r25, 0x00	; 0
     f76:	a8 ec       	ldi	r26, 0xC8	; 200
     f78:	b2 e4       	ldi	r27, 0x42	; 66
     f7a:	8d ab       	std	Y+53, r24	; 0x35
     f7c:	9e ab       	std	Y+54, r25	; 0x36
     f7e:	af ab       	std	Y+55, r26	; 0x37
     f80:	b8 af       	std	Y+56, r27	; 0x38
	#endif

	__builtin_avr_delay_cycles(__ticks_dc);

#elif !__HAS_DELAY_CYCLES || (__HAS_DELAY_CYCLES && !defined(__OPTIMIZE__)) || defined (__DELAY_BACKWARD_COMPATIBLE__)
	__tmp = ((F_CPU) / 3e6) * __us;
     f82:	6d a9       	ldd	r22, Y+53	; 0x35
     f84:	7e a9       	ldd	r23, Y+54	; 0x36
     f86:	8f a9       	ldd	r24, Y+55	; 0x37
     f88:	98 ad       	ldd	r25, Y+56	; 0x38
     f8a:	2b ea       	ldi	r18, 0xAB	; 171
     f8c:	3a ea       	ldi	r19, 0xAA	; 170
     f8e:	4a ea       	ldi	r20, 0xAA	; 170
     f90:	50 e4       	ldi	r21, 0x40	; 64
     f92:	0e 94 51 0e 	call	0x1ca2	; 0x1ca2 <__mulsf3>
     f96:	dc 01       	movw	r26, r24
     f98:	cb 01       	movw	r24, r22
     f9a:	89 af       	std	Y+57, r24	; 0x39
     f9c:	9a af       	std	Y+58, r25	; 0x3a
     f9e:	ab af       	std	Y+59, r26	; 0x3b
     fa0:	bc af       	std	Y+60, r27	; 0x3c
	if (__tmp < 1.0)
     fa2:	11 e0       	ldi	r17, 0x01	; 1
     fa4:	69 ad       	ldd	r22, Y+57	; 0x39
     fa6:	7a ad       	ldd	r23, Y+58	; 0x3a
     fa8:	8b ad       	ldd	r24, Y+59	; 0x3b
     faa:	9c ad       	ldd	r25, Y+60	; 0x3c
     fac:	20 e0       	ldi	r18, 0x00	; 0
     fae:	30 e0       	ldi	r19, 0x00	; 0
     fb0:	40 e8       	ldi	r20, 0x80	; 128
     fb2:	5f e3       	ldi	r21, 0x3F	; 63
     fb4:	0e 94 59 10 	call	0x20b2	; 0x20b2 <__ltsf2>
     fb8:	88 23       	and	r24, r24
     fba:	0c f0       	brlt	.+2      	; 0xfbe <InitLCD+0x432>
     fbc:	10 e0       	ldi	r17, 0x00	; 0
     fbe:	11 23       	and	r17, r17
     fc0:	19 f0       	breq	.+6      	; 0xfc8 <InitLCD+0x43c>
		__ticks = 1;
     fc2:	81 e0       	ldi	r24, 0x01	; 1
     fc4:	8d af       	std	Y+61, r24	; 0x3d
     fc6:	f3 c0       	rjmp	.+486    	; 0x11ae <__stack+0xaf>
	else if (__tmp > 255)
     fc8:	11 e0       	ldi	r17, 0x01	; 1
     fca:	69 ad       	ldd	r22, Y+57	; 0x39
     fcc:	7a ad       	ldd	r23, Y+58	; 0x3a
     fce:	8b ad       	ldd	r24, Y+59	; 0x3b
     fd0:	9c ad       	ldd	r25, Y+60	; 0x3c
     fd2:	20 e0       	ldi	r18, 0x00	; 0
     fd4:	30 e0       	ldi	r19, 0x00	; 0
     fd6:	4f e7       	ldi	r20, 0x7F	; 127
     fd8:	53 e4       	ldi	r21, 0x43	; 67
     fda:	0e 94 f9 0f 	call	0x1ff2	; 0x1ff2 <__gtsf2>
     fde:	18 16       	cp	r1, r24
     fe0:	0c f0       	brlt	.+2      	; 0xfe4 <InitLCD+0x458>
     fe2:	10 e0       	ldi	r17, 0x00	; 0
     fe4:	11 23       	and	r17, r17
     fe6:	09 f4       	brne	.+2      	; 0xfea <InitLCD+0x45e>
     fe8:	d9 c0       	rjmp	.+434    	; 0x119c <__stack+0x9d>
	{
		_delay_ms(__us / 1000.0);
     fea:	6d a9       	ldd	r22, Y+53	; 0x35
     fec:	7e a9       	ldd	r23, Y+54	; 0x36
     fee:	8f a9       	ldd	r24, Y+55	; 0x37
     ff0:	98 ad       	ldd	r25, Y+56	; 0x38
     ff2:	20 e0       	ldi	r18, 0x00	; 0
     ff4:	30 e0       	ldi	r19, 0x00	; 0
     ff6:	4a e7       	ldi	r20, 0x7A	; 122
     ff8:	54 e4       	ldi	r21, 0x44	; 68
     ffa:	0e 94 4b 0f 	call	0x1e96	; 0x1e96 <__divsf3>
     ffe:	dc 01       	movw	r26, r24
    1000:	cb 01       	movw	r24, r22
    1002:	9e 01       	movw	r18, r28
    1004:	22 5c       	subi	r18, 0xC2	; 194
    1006:	3f 4f       	sbci	r19, 0xFF	; 255
    1008:	f9 01       	movw	r30, r18
    100a:	80 83       	st	Z, r24
    100c:	91 83       	std	Z+1, r25	; 0x01
    100e:	a2 83       	std	Z+2, r26	; 0x02
    1010:	b3 83       	std	Z+3, r27	; 0x03
	#endif

	__builtin_avr_delay_cycles(__ticks_dc);

#elif !__HAS_DELAY_CYCLES || (__HAS_DELAY_CYCLES && !defined(__OPTIMIZE__)) || defined (__DELAY_BACKWARD_COMPATIBLE__)
	__tmp = ((F_CPU) / 4e3) * __ms;
    1012:	8e 01       	movw	r16, r28
    1014:	0e 5b       	subi	r16, 0xBE	; 190
    1016:	1f 4f       	sbci	r17, 0xFF	; 255
    1018:	ce 01       	movw	r24, r28
    101a:	ce 96       	adiw	r24, 0x3e	; 62
    101c:	fc 01       	movw	r30, r24
    101e:	60 81       	ld	r22, Z
    1020:	71 81       	ldd	r23, Z+1	; 0x01
    1022:	82 81       	ldd	r24, Z+2	; 0x02
    1024:	93 81       	ldd	r25, Z+3	; 0x03
    1026:	20 e0       	ldi	r18, 0x00	; 0
    1028:	30 e0       	ldi	r19, 0x00	; 0
    102a:	4a e7       	ldi	r20, 0x7A	; 122
    102c:	55 e4       	ldi	r21, 0x45	; 69
    102e:	0e 94 51 0e 	call	0x1ca2	; 0x1ca2 <__mulsf3>
    1032:	dc 01       	movw	r26, r24
    1034:	cb 01       	movw	r24, r22
    1036:	f8 01       	movw	r30, r16
    1038:	80 83       	st	Z, r24
    103a:	91 83       	std	Z+1, r25	; 0x01
    103c:	a2 83       	std	Z+2, r26	; 0x02
    103e:	b3 83       	std	Z+3, r27	; 0x03
	if (__tmp < 1.0)
    1040:	ce 01       	movw	r24, r28
    1042:	8e 5b       	subi	r24, 0xBE	; 190
    1044:	9f 4f       	sbci	r25, 0xFF	; 255
    1046:	11 e0       	ldi	r17, 0x01	; 1
    1048:	fc 01       	movw	r30, r24
    104a:	60 81       	ld	r22, Z
    104c:	71 81       	ldd	r23, Z+1	; 0x01
    104e:	82 81       	ldd	r24, Z+2	; 0x02
    1050:	93 81       	ldd	r25, Z+3	; 0x03
    1052:	20 e0       	ldi	r18, 0x00	; 0
    1054:	30 e0       	ldi	r19, 0x00	; 0
    1056:	40 e8       	ldi	r20, 0x80	; 128
    1058:	5f e3       	ldi	r21, 0x3F	; 63
    105a:	0e 94 59 10 	call	0x20b2	; 0x20b2 <__ltsf2>
    105e:	88 23       	and	r24, r24
    1060:	0c f0       	brlt	.+2      	; 0x1064 <InitLCD+0x4d8>
    1062:	10 e0       	ldi	r17, 0x00	; 0
    1064:	11 23       	and	r17, r17
    1066:	49 f0       	breq	.+18     	; 0x107a <InitLCD+0x4ee>
		__ticks = 1;
    1068:	ce 01       	movw	r24, r28
    106a:	8a 5b       	subi	r24, 0xBA	; 186
    106c:	9f 4f       	sbci	r25, 0xFF	; 255
    106e:	21 e0       	ldi	r18, 0x01	; 1
    1070:	30 e0       	ldi	r19, 0x00	; 0
    1072:	fc 01       	movw	r30, r24
    1074:	31 83       	std	Z+1, r19	; 0x01
    1076:	20 83       	st	Z, r18
    1078:	73 c0       	rjmp	.+230    	; 0x1160 <__stack+0x61>
	else if (__tmp > 65535)
    107a:	ce 01       	movw	r24, r28
    107c:	8e 5b       	subi	r24, 0xBE	; 190
    107e:	9f 4f       	sbci	r25, 0xFF	; 255
    1080:	11 e0       	ldi	r17, 0x01	; 1
    1082:	fc 01       	movw	r30, r24
    1084:	60 81       	ld	r22, Z
    1086:	71 81       	ldd	r23, Z+1	; 0x01
    1088:	82 81       	ldd	r24, Z+2	; 0x02
    108a:	93 81       	ldd	r25, Z+3	; 0x03
    108c:	20 e0       	ldi	r18, 0x00	; 0
    108e:	3f ef       	ldi	r19, 0xFF	; 255
    1090:	4f e7       	ldi	r20, 0x7F	; 127
    1092:	57 e4       	ldi	r21, 0x47	; 71
    1094:	0e 94 f9 0f 	call	0x1ff2	; 0x1ff2 <__gtsf2>
    1098:	18 16       	cp	r1, r24
    109a:	0c f0       	brlt	.+2      	; 0x109e <InitLCD+0x512>
    109c:	10 e0       	ldi	r17, 0x00	; 0
    109e:	11 23       	and	r17, r17
    10a0:	09 f4       	brne	.+2      	; 0x10a4 <InitLCD+0x518>
    10a2:	4c c0       	rjmp	.+152    	; 0x113c <__stack+0x3d>
	{
		//	__ticks = requested delay in 1/10 ms
		__ticks = (uint16_t) (__ms * 10.0);
    10a4:	ce 01       	movw	r24, r28
    10a6:	ce 96       	adiw	r24, 0x3e	; 62
    10a8:	fc 01       	movw	r30, r24
    10aa:	60 81       	ld	r22, Z
    10ac:	71 81       	ldd	r23, Z+1	; 0x01
    10ae:	82 81       	ldd	r24, Z+2	; 0x02
    10b0:	93 81       	ldd	r25, Z+3	; 0x03
    10b2:	20 e0       	ldi	r18, 0x00	; 0
    10b4:	30 e0       	ldi	r19, 0x00	; 0
    10b6:	40 e2       	ldi	r20, 0x20	; 32
    10b8:	51 e4       	ldi	r21, 0x41	; 65
    10ba:	0e 94 51 0e 	call	0x1ca2	; 0x1ca2 <__mulsf3>
    10be:	dc 01       	movw	r26, r24
    10c0:	cb 01       	movw	r24, r22
    10c2:	8e 01       	movw	r16, r28
    10c4:	0a 5b       	subi	r16, 0xBA	; 186
    10c6:	1f 4f       	sbci	r17, 0xFF	; 255
    10c8:	bc 01       	movw	r22, r24
    10ca:	cd 01       	movw	r24, r26
    10cc:	0e 94 7d 0c 	call	0x18fa	; 0x18fa <__fixunssfsi>
    10d0:	dc 01       	movw	r26, r24
    10d2:	cb 01       	movw	r24, r22
    10d4:	f8 01       	movw	r30, r16
    10d6:	91 83       	std	Z+1, r25	; 0x01
    10d8:	80 83       	st	Z, r24
    10da:	27 c0       	rjmp	.+78     	; 0x112a <__stack+0x2b>
    10dc:	ce 01       	movw	r24, r28
    10de:	88 5b       	subi	r24, 0xB8	; 184
    10e0:	9f 4f       	sbci	r25, 0xFF	; 255
    10e2:	20 e9       	ldi	r18, 0x90	; 144
    10e4:	31 e0       	ldi	r19, 0x01	; 1
    10e6:	fc 01       	movw	r30, r24
    10e8:	31 83       	std	Z+1, r19	; 0x01
    10ea:	20 83       	st	Z, r18
    milliseconds can be achieved.
 */
void
_delay_loop_2(uint16_t __count)
{
	__asm__ volatile (
    10ec:	ce 01       	movw	r24, r28
    10ee:	88 5b       	subi	r24, 0xB8	; 184
    10f0:	9f 4f       	sbci	r25, 0xFF	; 255
    10f2:	fc 01       	movw	r30, r24
    10f4:	80 81       	ld	r24, Z
    10f6:	91 81       	ldd	r25, Z+1	; 0x01
    10f8:	8c 01       	movw	r16, r24
    10fa:	c8 01       	movw	r24, r16
    10fc:	01 97       	sbiw	r24, 0x01	; 1
    10fe:	f1 f7       	brne	.-4      	; 0x10fc <InitLCD+0x570>
    1100:	8c 01       	movw	r16, r24
    1102:	ce 01       	movw	r24, r28
    1104:	88 5b       	subi	r24, 0xB8	; 184
    1106:	9f 4f       	sbci	r25, 0xFF	; 255
    1108:	fc 01       	movw	r30, r24
    110a:	11 83       	std	Z+1, r17	; 0x01
    110c:	00 83       	st	Z, r16
		while(__ticks)
		{
			// wait 1/10 ms
			_delay_loop_2(((F_CPU) / 4e3) / 10);
			__ticks --;
    110e:	ce 01       	movw	r24, r28
    1110:	8a 5b       	subi	r24, 0xBA	; 186
    1112:	9f 4f       	sbci	r25, 0xFF	; 255
    1114:	9e 01       	movw	r18, r28
    1116:	2a 5b       	subi	r18, 0xBA	; 186
    1118:	3f 4f       	sbci	r19, 0xFF	; 255
    111a:	f9 01       	movw	r30, r18
    111c:	20 81       	ld	r18, Z
    111e:	31 81       	ldd	r19, Z+1	; 0x01
    1120:	21 50       	subi	r18, 0x01	; 1
    1122:	30 40       	sbci	r19, 0x00	; 0
    1124:	fc 01       	movw	r30, r24
    1126:	31 83       	std	Z+1, r19	; 0x01
    1128:	20 83       	st	Z, r18
		__ticks = 1;
	else if (__tmp > 65535)
	{
		//	__ticks = requested delay in 1/10 ms
		__ticks = (uint16_t) (__ms * 10.0);
		while(__ticks)
    112a:	ce 01       	movw	r24, r28
    112c:	8a 5b       	subi	r24, 0xBA	; 186
    112e:	9f 4f       	sbci	r25, 0xFF	; 255
    1130:	fc 01       	movw	r30, r24
    1132:	80 81       	ld	r24, Z
    1134:	91 81       	ldd	r25, Z+1	; 0x01
    1136:	00 97       	sbiw	r24, 0x00	; 0
    1138:	89 f6       	brne	.-94     	; 0x10dc <InitLCD+0x550>
    113a:	4c c0       	rjmp	.+152    	; 0x11d4 <__stack+0xd5>
			__ticks --;
		}
		return;
	}
	else
		__ticks = (uint16_t)__tmp;
    113c:	8e 01       	movw	r16, r28
    113e:	0a 5b       	subi	r16, 0xBA	; 186
    1140:	1f 4f       	sbci	r17, 0xFF	; 255
    1142:	ce 01       	movw	r24, r28
    1144:	8e 5b       	subi	r24, 0xBE	; 190
    1146:	9f 4f       	sbci	r25, 0xFF	; 255
    1148:	fc 01       	movw	r30, r24
    114a:	60 81       	ld	r22, Z
    114c:	71 81       	ldd	r23, Z+1	; 0x01
    114e:	82 81       	ldd	r24, Z+2	; 0x02
    1150:	93 81       	ldd	r25, Z+3	; 0x03
    1152:	0e 94 7d 0c 	call	0x18fa	; 0x18fa <__fixunssfsi>
    1156:	dc 01       	movw	r26, r24
    1158:	cb 01       	movw	r24, r22
    115a:	f8 01       	movw	r30, r16
    115c:	91 83       	std	Z+1, r25	; 0x01
    115e:	80 83       	st	Z, r24
    1160:	ce 01       	movw	r24, r28
    1162:	86 5b       	subi	r24, 0xB6	; 182
    1164:	9f 4f       	sbci	r25, 0xFF	; 255
    1166:	9e 01       	movw	r18, r28
    1168:	2a 5b       	subi	r18, 0xBA	; 186
    116a:	3f 4f       	sbci	r19, 0xFF	; 255
    116c:	f9 01       	movw	r30, r18
    116e:	20 81       	ld	r18, Z
    1170:	31 81       	ldd	r19, Z+1	; 0x01
    1172:	fc 01       	movw	r30, r24
    1174:	31 83       	std	Z+1, r19	; 0x01
    1176:	20 83       	st	Z, r18
    1178:	ce 01       	movw	r24, r28
    117a:	86 5b       	subi	r24, 0xB6	; 182
    117c:	9f 4f       	sbci	r25, 0xFF	; 255
    117e:	fc 01       	movw	r30, r24
    1180:	80 81       	ld	r24, Z
    1182:	91 81       	ldd	r25, Z+1	; 0x01
    1184:	8c 01       	movw	r16, r24
    1186:	c8 01       	movw	r24, r16
    1188:	01 97       	sbiw	r24, 0x01	; 1
    118a:	f1 f7       	brne	.-4      	; 0x1188 <__stack+0x89>
    118c:	8c 01       	movw	r16, r24
    118e:	ce 01       	movw	r24, r28
    1190:	86 5b       	subi	r24, 0xB6	; 182
    1192:	9f 4f       	sbci	r25, 0xFF	; 255
    1194:	fc 01       	movw	r30, r24
    1196:	11 83       	std	Z+1, r17	; 0x01
    1198:	00 83       	st	Z, r16
    119a:	1c c0       	rjmp	.+56     	; 0x11d4 <__stack+0xd5>
	{
		_delay_ms(__us / 1000.0);
		return;
	}
	else
		__ticks = (uint8_t)__tmp;
    119c:	69 ad       	ldd	r22, Y+57	; 0x39
    119e:	7a ad       	ldd	r23, Y+58	; 0x3a
    11a0:	8b ad       	ldd	r24, Y+59	; 0x3b
    11a2:	9c ad       	ldd	r25, Y+60	; 0x3c
    11a4:	0e 94 7d 0c 	call	0x18fa	; 0x18fa <__fixunssfsi>
    11a8:	dc 01       	movw	r26, r24
    11aa:	cb 01       	movw	r24, r22
    11ac:	8d af       	std	Y+61, r24	; 0x3d
    11ae:	ce 01       	movw	r24, r28
    11b0:	84 5b       	subi	r24, 0xB4	; 180
    11b2:	9f 4f       	sbci	r25, 0xFF	; 255
    11b4:	2d ad       	ldd	r18, Y+61	; 0x3d
    11b6:	fc 01       	movw	r30, r24
    11b8:	20 83       	st	Z, r18
    can be achieved.
*/
void
_delay_loop_1(uint8_t __count)
{
	__asm__ volatile (
    11ba:	ce 01       	movw	r24, r28
    11bc:	84 5b       	subi	r24, 0xB4	; 180
    11be:	9f 4f       	sbci	r25, 0xFF	; 255
    11c0:	fc 01       	movw	r30, r24
    11c2:	80 81       	ld	r24, Z
    11c4:	18 2f       	mov	r17, r24
    11c6:	1a 95       	dec	r17
    11c8:	f1 f7       	brne	.-4      	; 0x11c6 <__stack+0xc7>
    11ca:	ce 01       	movw	r24, r28
    11cc:	84 5b       	subi	r24, 0xB4	; 180
    11ce:	9f 4f       	sbci	r25, 0xFF	; 255
    11d0:	fc 01       	movw	r30, r24
    11d2:	10 83       	st	Z, r17
	_delay_us(100);

	LCD_Command(0x3C);	//Function Set
    11d4:	8c e3       	ldi	r24, 0x3C	; 60
    11d6:	0e 94 67 00 	call	0xce	; 0xce <LCD_Command>
	LCD_Command(0x0C);	//Display Control
    11da:	8c e0       	ldi	r24, 0x0C	; 12
    11dc:	0e 94 67 00 	call	0xce	; 0xce <LCD_Command>
	LCD_Command(DISPLAY_CLEAR); //Display Clear
    11e0:	81 e0       	ldi	r24, 0x01	; 1
    11e2:	0e 94 67 00 	call	0xce	; 0xce <LCD_Command>
	LCD_Command(0x06);		//Set Entrymode
    11e6:	86 e0       	ldi	r24, 0x06	; 6
    11e8:	0e 94 67 00 	call	0xce	; 0xce <LCD_Command>
}
    11ec:	c4 5b       	subi	r28, 0xB4	; 180
    11ee:	df 4f       	sbci	r29, 0xFF	; 255
    11f0:	0f b6       	in	r0, 0x3f	; 63
    11f2:	f8 94       	cli
    11f4:	de bf       	out	0x3e, r29	; 62
    11f6:	0f be       	out	0x3f, r0	; 63
    11f8:	cd bf       	out	0x3d, r28	; 61
    11fa:	cf 91       	pop	r28
    11fc:	df 91       	pop	r29
    11fe:	1f 91       	pop	r17
    1200:	0f 91       	pop	r16
    1202:	08 95       	ret

00001204 <Set_Data_Memory_Address>:

void Set_Data_Memory_Address(char address)
{
    1204:	df 93       	push	r29
    1206:	cf 93       	push	r28
    1208:	0f 92       	push	r0
    120a:	cd b7       	in	r28, 0x3d	; 61
    120c:	de b7       	in	r29, 0x3e	; 62
    120e:	89 83       	std	Y+1, r24	; 0x01
	LCD_Command(address | 0x80);
    1210:	89 81       	ldd	r24, Y+1	; 0x01
    1212:	80 68       	ori	r24, 0x80	; 128
    1214:	0e 94 67 00 	call	0xce	; 0xce <LCD_Command>
}
    1218:	0f 90       	pop	r0
    121a:	cf 91       	pop	r28
    121c:	df 91       	pop	r29
    121e:	08 95       	ret

00001220 <LCD_WriteString>:

void LCD_WriteString(char* str)
{
    1220:	df 93       	push	r29
    1222:	cf 93       	push	r28
    1224:	00 d0       	rcall	.+0      	; 0x1226 <LCD_WriteString+0x6>
    1226:	cd b7       	in	r28, 0x3d	; 61
    1228:	de b7       	in	r29, 0x3e	; 62
    122a:	9a 83       	std	Y+2, r25	; 0x02
    122c:	89 83       	std	Y+1, r24	; 0x01
	while(*str != 0)
    122e:	0b c0       	rjmp	.+22     	; 0x1246 <LCD_WriteString+0x26>
	{
		LCD_Data(*str);
    1230:	89 81       	ldd	r24, Y+1	; 0x01
    1232:	9a 81       	ldd	r25, Y+2	; 0x02
    1234:	fc 01       	movw	r30, r24
    1236:	80 81       	ld	r24, Z
    1238:	0e 94 bf 02 	call	0x57e	; 0x57e <LCD_Data>
		str++;
    123c:	89 81       	ldd	r24, Y+1	; 0x01
    123e:	9a 81       	ldd	r25, Y+2	; 0x02
    1240:	01 96       	adiw	r24, 0x01	; 1
    1242:	9a 83       	std	Y+2, r25	; 0x02
    1244:	89 83       	std	Y+1, r24	; 0x01
	LCD_Command(address | 0x80);
}

void LCD_WriteString(char* str)
{
	while(*str != 0)
    1246:	89 81       	ldd	r24, Y+1	; 0x01
    1248:	9a 81       	ldd	r25, Y+2	; 0x02
    124a:	fc 01       	movw	r30, r24
    124c:	80 81       	ld	r24, Z
    124e:	88 23       	and	r24, r24
    1250:	79 f7       	brne	.-34     	; 0x1230 <LCD_WriteString+0x10>
	{
		LCD_Data(*str);
		str++;
	}
}
    1252:	0f 90       	pop	r0
    1254:	0f 90       	pop	r0
    1256:	cf 91       	pop	r28
    1258:	df 91       	pop	r29
    125a:	08 95       	ret

0000125c <LCD_WriteNum>:

void LCD_WriteNum(unsigned char Num)
{
    125c:	df 93       	push	r29
    125e:	cf 93       	push	r28
    1260:	0f 92       	push	r0
    1262:	cd b7       	in	r28, 0x3d	; 61
    1264:	de b7       	in	r29, 0x3e	; 62
    1266:	89 83       	std	Y+1, r24	; 0x01
	if(Num >= 10)
    1268:	89 81       	ldd	r24, Y+1	; 0x01
    126a:	8a 30       	cpi	r24, 0x0A	; 10
    126c:	c0 f0       	brcs	.+48     	; 0x129e <LCD_WriteNum+0x42>
	{
		if(Num >= 100)
    126e:	89 81       	ldd	r24, Y+1	; 0x01
    1270:	84 36       	cpi	r24, 0x64	; 100
    1272:	40 f0       	brcs	.+16     	; 0x1284 <LCD_WriteNum+0x28>
		{
			LCD_Data((Num / 100) + '0');
    1274:	89 81       	ldd	r24, Y+1	; 0x01
    1276:	94 e6       	ldi	r25, 0x64	; 100
    1278:	69 2f       	mov	r22, r25
    127a:	0e 94 6b 12 	call	0x24d6	; 0x24d6 <__udivmodqi4>
    127e:	80 5d       	subi	r24, 0xD0	; 208
    1280:	0e 94 bf 02 	call	0x57e	; 0x57e <LCD_Data>
		}

		LCD_Data((Num /10) % 10 + '0');
    1284:	89 81       	ldd	r24, Y+1	; 0x01
    1286:	9a e0       	ldi	r25, 0x0A	; 10
    1288:	69 2f       	mov	r22, r25
    128a:	0e 94 6b 12 	call	0x24d6	; 0x24d6 <__udivmodqi4>
    128e:	9a e0       	ldi	r25, 0x0A	; 10
    1290:	69 2f       	mov	r22, r25
    1292:	0e 94 6b 12 	call	0x24d6	; 0x24d6 <__udivmodqi4>
    1296:	89 2f       	mov	r24, r25
    1298:	80 5d       	subi	r24, 0xD0	; 208
    129a:	0e 94 bf 02 	call	0x57e	; 0x57e <LCD_Data>
	}

	LCD_Data(Num % 10 + '0');
    129e:	89 81       	ldd	r24, Y+1	; 0x01
    12a0:	9a e0       	ldi	r25, 0x0A	; 10
    12a2:	69 2f       	mov	r22, r25
    12a4:	0e 94 6b 12 	call	0x24d6	; 0x24d6 <__udivmodqi4>
    12a8:	89 2f       	mov	r24, r25
    12aa:	80 5d       	subi	r24, 0xD0	; 208
    12ac:	0e 94 bf 02 	call	0x57e	; 0x57e <LCD_Data>

	LCD_WriteString("   ");
    12b0:	80 e0       	ldi	r24, 0x00	; 0
    12b2:	91 e0       	ldi	r25, 0x01	; 1
    12b4:	0e 94 10 09 	call	0x1220	; 0x1220 <LCD_WriteString>
}
    12b8:	0f 90       	pop	r0
    12ba:	cf 91       	pop	r28
    12bc:	df 91       	pop	r29
    12be:	08 95       	ret

000012c0 <SetOutputLine>:
//char PrevKey = 0x00;
int PrevKey = 0;
int CurrKey = 0;

void SetOutputLine(unsigned char LineNum)
{
    12c0:	0f 93       	push	r16
    12c2:	1f 93       	push	r17
    12c4:	df 93       	push	r29
    12c6:	cf 93       	push	r28
    12c8:	cd b7       	in	r28, 0x3d	; 61
    12ca:	de b7       	in	r29, 0x3e	; 62
    12cc:	69 97       	sbiw	r28, 0x19	; 25
    12ce:	0f b6       	in	r0, 0x3f	; 63
    12d0:	f8 94       	cli
    12d2:	de bf       	out	0x3e, r29	; 62
    12d4:	0f be       	out	0x3f, r0	; 63
    12d6:	cd bf       	out	0x3d, r28	; 61
    12d8:	89 8f       	std	Y+25, r24	; 0x19
	PORTD = 0x01 << LineNum;
    12da:	82 e3       	ldi	r24, 0x32	; 50
    12dc:	90 e0       	ldi	r25, 0x00	; 0
    12de:	29 8d       	ldd	r18, Y+25	; 0x19
    12e0:	42 2f       	mov	r20, r18
    12e2:	50 e0       	ldi	r21, 0x00	; 0
    12e4:	21 e0       	ldi	r18, 0x01	; 1
    12e6:	30 e0       	ldi	r19, 0x00	; 0
    12e8:	02 c0       	rjmp	.+4      	; 0x12ee <SetOutputLine+0x2e>
    12ea:	22 0f       	add	r18, r18
    12ec:	33 1f       	adc	r19, r19
    12ee:	4a 95       	dec	r20
    12f0:	e2 f7       	brpl	.-8      	; 0x12ea <SetOutputLine+0x2a>
    12f2:	fc 01       	movw	r30, r24
    12f4:	20 83       	st	Z, r18
    12f6:	80 e0       	ldi	r24, 0x00	; 0
    12f8:	90 e0       	ldi	r25, 0x00	; 0
    12fa:	a0 e2       	ldi	r26, 0x20	; 32
    12fc:	b1 e4       	ldi	r27, 0x41	; 65
    12fe:	89 83       	std	Y+1, r24	; 0x01
    1300:	9a 83       	std	Y+2, r25	; 0x02
    1302:	ab 83       	std	Y+3, r26	; 0x03
    1304:	bc 83       	std	Y+4, r27	; 0x04
	#endif

	__builtin_avr_delay_cycles(__ticks_dc);

#elif !__HAS_DELAY_CYCLES || (__HAS_DELAY_CYCLES && !defined(__OPTIMIZE__)) || defined (__DELAY_BACKWARD_COMPATIBLE__)
	__tmp = ((F_CPU) / 3e6) * __us;
    1306:	69 81       	ldd	r22, Y+1	; 0x01
    1308:	7a 81       	ldd	r23, Y+2	; 0x02
    130a:	8b 81       	ldd	r24, Y+3	; 0x03
    130c:	9c 81       	ldd	r25, Y+4	; 0x04
    130e:	2b ea       	ldi	r18, 0xAB	; 171
    1310:	3a ea       	ldi	r19, 0xAA	; 170
    1312:	4a ea       	ldi	r20, 0xAA	; 170
    1314:	50 e4       	ldi	r21, 0x40	; 64
    1316:	0e 94 51 0e 	call	0x1ca2	; 0x1ca2 <__mulsf3>
    131a:	dc 01       	movw	r26, r24
    131c:	cb 01       	movw	r24, r22
    131e:	8d 83       	std	Y+5, r24	; 0x05
    1320:	9e 83       	std	Y+6, r25	; 0x06
    1322:	af 83       	std	Y+7, r26	; 0x07
    1324:	b8 87       	std	Y+8, r27	; 0x08
	if (__tmp < 1.0)
    1326:	11 e0       	ldi	r17, 0x01	; 1
    1328:	6d 81       	ldd	r22, Y+5	; 0x05
    132a:	7e 81       	ldd	r23, Y+6	; 0x06
    132c:	8f 81       	ldd	r24, Y+7	; 0x07
    132e:	98 85       	ldd	r25, Y+8	; 0x08
    1330:	20 e0       	ldi	r18, 0x00	; 0
    1332:	30 e0       	ldi	r19, 0x00	; 0
    1334:	40 e8       	ldi	r20, 0x80	; 128
    1336:	5f e3       	ldi	r21, 0x3F	; 63
    1338:	0e 94 59 10 	call	0x20b2	; 0x20b2 <__ltsf2>
    133c:	88 23       	and	r24, r24
    133e:	0c f0       	brlt	.+2      	; 0x1342 <SetOutputLine+0x82>
    1340:	10 e0       	ldi	r17, 0x00	; 0
    1342:	11 23       	and	r17, r17
    1344:	19 f0       	breq	.+6      	; 0x134c <SetOutputLine+0x8c>
		__ticks = 1;
    1346:	81 e0       	ldi	r24, 0x01	; 1
    1348:	89 87       	std	Y+9, r24	; 0x09
    134a:	a3 c0       	rjmp	.+326    	; 0x1492 <SetOutputLine+0x1d2>
	else if (__tmp > 255)
    134c:	11 e0       	ldi	r17, 0x01	; 1
    134e:	6d 81       	ldd	r22, Y+5	; 0x05
    1350:	7e 81       	ldd	r23, Y+6	; 0x06
    1352:	8f 81       	ldd	r24, Y+7	; 0x07
    1354:	98 85       	ldd	r25, Y+8	; 0x08
    1356:	20 e0       	ldi	r18, 0x00	; 0
    1358:	30 e0       	ldi	r19, 0x00	; 0
    135a:	4f e7       	ldi	r20, 0x7F	; 127
    135c:	53 e4       	ldi	r21, 0x43	; 67
    135e:	0e 94 f9 0f 	call	0x1ff2	; 0x1ff2 <__gtsf2>
    1362:	18 16       	cp	r1, r24
    1364:	0c f0       	brlt	.+2      	; 0x1368 <SetOutputLine+0xa8>
    1366:	10 e0       	ldi	r17, 0x00	; 0
    1368:	11 23       	and	r17, r17
    136a:	09 f4       	brne	.+2      	; 0x136e <SetOutputLine+0xae>
    136c:	89 c0       	rjmp	.+274    	; 0x1480 <SetOutputLine+0x1c0>
	{
		_delay_ms(__us / 1000.0);
    136e:	69 81       	ldd	r22, Y+1	; 0x01
    1370:	7a 81       	ldd	r23, Y+2	; 0x02
    1372:	8b 81       	ldd	r24, Y+3	; 0x03
    1374:	9c 81       	ldd	r25, Y+4	; 0x04
    1376:	20 e0       	ldi	r18, 0x00	; 0
    1378:	30 e0       	ldi	r19, 0x00	; 0
    137a:	4a e7       	ldi	r20, 0x7A	; 122
    137c:	54 e4       	ldi	r21, 0x44	; 68
    137e:	0e 94 4b 0f 	call	0x1e96	; 0x1e96 <__divsf3>
    1382:	dc 01       	movw	r26, r24
    1384:	cb 01       	movw	r24, r22
    1386:	8a 87       	std	Y+10, r24	; 0x0a
    1388:	9b 87       	std	Y+11, r25	; 0x0b
    138a:	ac 87       	std	Y+12, r26	; 0x0c
    138c:	bd 87       	std	Y+13, r27	; 0x0d
	#endif

	__builtin_avr_delay_cycles(__ticks_dc);

#elif !__HAS_DELAY_CYCLES || (__HAS_DELAY_CYCLES && !defined(__OPTIMIZE__)) || defined (__DELAY_BACKWARD_COMPATIBLE__)
	__tmp = ((F_CPU) / 4e3) * __ms;
    138e:	6a 85       	ldd	r22, Y+10	; 0x0a
    1390:	7b 85       	ldd	r23, Y+11	; 0x0b
    1392:	8c 85       	ldd	r24, Y+12	; 0x0c
    1394:	9d 85       	ldd	r25, Y+13	; 0x0d
    1396:	20 e0       	ldi	r18, 0x00	; 0
    1398:	30 e0       	ldi	r19, 0x00	; 0
    139a:	4a e7       	ldi	r20, 0x7A	; 122
    139c:	55 e4       	ldi	r21, 0x45	; 69
    139e:	0e 94 51 0e 	call	0x1ca2	; 0x1ca2 <__mulsf3>
    13a2:	dc 01       	movw	r26, r24
    13a4:	cb 01       	movw	r24, r22
    13a6:	8e 87       	std	Y+14, r24	; 0x0e
    13a8:	9f 87       	std	Y+15, r25	; 0x0f
    13aa:	a8 8b       	std	Y+16, r26	; 0x10
    13ac:	b9 8b       	std	Y+17, r27	; 0x11
	if (__tmp < 1.0)
    13ae:	11 e0       	ldi	r17, 0x01	; 1
    13b0:	6e 85       	ldd	r22, Y+14	; 0x0e
    13b2:	7f 85       	ldd	r23, Y+15	; 0x0f
    13b4:	88 89       	ldd	r24, Y+16	; 0x10
    13b6:	99 89       	ldd	r25, Y+17	; 0x11
    13b8:	20 e0       	ldi	r18, 0x00	; 0
    13ba:	30 e0       	ldi	r19, 0x00	; 0
    13bc:	40 e8       	ldi	r20, 0x80	; 128
    13be:	5f e3       	ldi	r21, 0x3F	; 63
    13c0:	0e 94 59 10 	call	0x20b2	; 0x20b2 <__ltsf2>
    13c4:	88 23       	and	r24, r24
    13c6:	0c f0       	brlt	.+2      	; 0x13ca <SetOutputLine+0x10a>
    13c8:	10 e0       	ldi	r17, 0x00	; 0
    13ca:	11 23       	and	r17, r17
    13cc:	29 f0       	breq	.+10     	; 0x13d8 <SetOutputLine+0x118>
		__ticks = 1;
    13ce:	81 e0       	ldi	r24, 0x01	; 1
    13d0:	90 e0       	ldi	r25, 0x00	; 0
    13d2:	9b 8b       	std	Y+19, r25	; 0x13
    13d4:	8a 8b       	std	Y+18, r24	; 0x12
    13d6:	46 c0       	rjmp	.+140    	; 0x1464 <SetOutputLine+0x1a4>
	else if (__tmp > 65535)
    13d8:	11 e0       	ldi	r17, 0x01	; 1
    13da:	6e 85       	ldd	r22, Y+14	; 0x0e
    13dc:	7f 85       	ldd	r23, Y+15	; 0x0f
    13de:	88 89       	ldd	r24, Y+16	; 0x10
    13e0:	99 89       	ldd	r25, Y+17	; 0x11
    13e2:	20 e0       	ldi	r18, 0x00	; 0
    13e4:	3f ef       	ldi	r19, 0xFF	; 255
    13e6:	4f e7       	ldi	r20, 0x7F	; 127
    13e8:	57 e4       	ldi	r21, 0x47	; 71
    13ea:	0e 94 f9 0f 	call	0x1ff2	; 0x1ff2 <__gtsf2>
    13ee:	18 16       	cp	r1, r24
    13f0:	0c f0       	brlt	.+2      	; 0x13f4 <SetOutputLine+0x134>
    13f2:	10 e0       	ldi	r17, 0x00	; 0
    13f4:	11 23       	and	r17, r17
    13f6:	61 f1       	breq	.+88     	; 0x1450 <SetOutputLine+0x190>
	{
		//	__ticks = requested delay in 1/10 ms
		__ticks = (uint16_t) (__ms * 10.0);
    13f8:	6a 85       	ldd	r22, Y+10	; 0x0a
    13fa:	7b 85       	ldd	r23, Y+11	; 0x0b
    13fc:	8c 85       	ldd	r24, Y+12	; 0x0c
    13fe:	9d 85       	ldd	r25, Y+13	; 0x0d
    1400:	20 e0       	ldi	r18, 0x00	; 0
    1402:	30 e0       	ldi	r19, 0x00	; 0
    1404:	40 e2       	ldi	r20, 0x20	; 32
    1406:	51 e4       	ldi	r21, 0x41	; 65
    1408:	0e 94 51 0e 	call	0x1ca2	; 0x1ca2 <__mulsf3>
    140c:	dc 01       	movw	r26, r24
    140e:	cb 01       	movw	r24, r22
    1410:	bc 01       	movw	r22, r24
    1412:	cd 01       	movw	r24, r26
    1414:	0e 94 7d 0c 	call	0x18fa	; 0x18fa <__fixunssfsi>
    1418:	dc 01       	movw	r26, r24
    141a:	cb 01       	movw	r24, r22
    141c:	9b 8b       	std	Y+19, r25	; 0x13
    141e:	8a 8b       	std	Y+18, r24	; 0x12
    1420:	12 c0       	rjmp	.+36     	; 0x1446 <SetOutputLine+0x186>
    1422:	80 e9       	ldi	r24, 0x90	; 144
    1424:	91 e0       	ldi	r25, 0x01	; 1
    1426:	9d 8b       	std	Y+21, r25	; 0x15
    1428:	8c 8b       	std	Y+20, r24	; 0x14
    milliseconds can be achieved.
 */
void
_delay_loop_2(uint16_t __count)
{
	__asm__ volatile (
    142a:	8c 89       	ldd	r24, Y+20	; 0x14
    142c:	9d 89       	ldd	r25, Y+21	; 0x15
    142e:	8c 01       	movw	r16, r24
    1430:	c8 01       	movw	r24, r16
    1432:	01 97       	sbiw	r24, 0x01	; 1
    1434:	f1 f7       	brne	.-4      	; 0x1432 <SetOutputLine+0x172>
    1436:	8c 01       	movw	r16, r24
    1438:	1d 8b       	std	Y+21, r17	; 0x15
    143a:	0c 8b       	std	Y+20, r16	; 0x14
		while(__ticks)
		{
			// wait 1/10 ms
			_delay_loop_2(((F_CPU) / 4e3) / 10);
			__ticks --;
    143c:	8a 89       	ldd	r24, Y+18	; 0x12
    143e:	9b 89       	ldd	r25, Y+19	; 0x13
    1440:	01 97       	sbiw	r24, 0x01	; 1
    1442:	9b 8b       	std	Y+19, r25	; 0x13
    1444:	8a 8b       	std	Y+18, r24	; 0x12
		__ticks = 1;
	else if (__tmp > 65535)
	{
		//	__ticks = requested delay in 1/10 ms
		__ticks = (uint16_t) (__ms * 10.0);
		while(__ticks)
    1446:	8a 89       	ldd	r24, Y+18	; 0x12
    1448:	9b 89       	ldd	r25, Y+19	; 0x13
    144a:	00 97       	sbiw	r24, 0x00	; 0
    144c:	51 f7       	brne	.-44     	; 0x1422 <SetOutputLine+0x162>
    144e:	28 c0       	rjmp	.+80     	; 0x14a0 <SetOutputLine+0x1e0>
			__ticks --;
		}
		return;
	}
	else
		__ticks = (uint16_t)__tmp;
    1450:	6e 85       	ldd	r22, Y+14	; 0x0e
    1452:	7f 85       	ldd	r23, Y+15	; 0x0f
    1454:	88 89       	ldd	r24, Y+16	; 0x10
    1456:	99 89       	ldd	r25, Y+17	; 0x11
    1458:	0e 94 7d 0c 	call	0x18fa	; 0x18fa <__fixunssfsi>
    145c:	dc 01       	movw	r26, r24
    145e:	cb 01       	movw	r24, r22
    1460:	9b 8b       	std	Y+19, r25	; 0x13
    1462:	8a 8b       	std	Y+18, r24	; 0x12
    1464:	8a 89       	ldd	r24, Y+18	; 0x12
    1466:	9b 89       	ldd	r25, Y+19	; 0x13
    1468:	9f 8b       	std	Y+23, r25	; 0x17
    146a:	8e 8b       	std	Y+22, r24	; 0x16
    146c:	8e 89       	ldd	r24, Y+22	; 0x16
    146e:	9f 89       	ldd	r25, Y+23	; 0x17
    1470:	8c 01       	movw	r16, r24
    1472:	f8 01       	movw	r30, r16
    1474:	31 97       	sbiw	r30, 0x01	; 1
    1476:	f1 f7       	brne	.-4      	; 0x1474 <SetOutputLine+0x1b4>
    1478:	8f 01       	movw	r16, r30
    147a:	1f 8b       	std	Y+23, r17	; 0x17
    147c:	0e 8b       	std	Y+22, r16	; 0x16
    147e:	10 c0       	rjmp	.+32     	; 0x14a0 <SetOutputLine+0x1e0>
	{
		_delay_ms(__us / 1000.0);
		return;
	}
	else
		__ticks = (uint8_t)__tmp;
    1480:	6d 81       	ldd	r22, Y+5	; 0x05
    1482:	7e 81       	ldd	r23, Y+6	; 0x06
    1484:	8f 81       	ldd	r24, Y+7	; 0x07
    1486:	98 85       	ldd	r25, Y+8	; 0x08
    1488:	0e 94 7d 0c 	call	0x18fa	; 0x18fa <__fixunssfsi>
    148c:	dc 01       	movw	r26, r24
    148e:	cb 01       	movw	r24, r22
    1490:	89 87       	std	Y+9, r24	; 0x09
    1492:	89 85       	ldd	r24, Y+9	; 0x09
    1494:	88 8f       	std	Y+24, r24	; 0x18
    can be achieved.
*/
void
_delay_loop_1(uint8_t __count)
{
	__asm__ volatile (
    1496:	88 8d       	ldd	r24, Y+24	; 0x18
    1498:	18 2f       	mov	r17, r24
    149a:	1a 95       	dec	r17
    149c:	f1 f7       	brne	.-4      	; 0x149a <SetOutputLine+0x1da>
    149e:	18 8f       	std	Y+24, r17	; 0x18
	_delay_us(10);
}
    14a0:	69 96       	adiw	r28, 0x19	; 25
    14a2:	0f b6       	in	r0, 0x3f	; 63
    14a4:	f8 94       	cli
    14a6:	de bf       	out	0x3e, r29	; 62
    14a8:	0f be       	out	0x3f, r0	; 63
    14aa:	cd bf       	out	0x3d, r28	; 61
    14ac:	cf 91       	pop	r28
    14ae:	df 91       	pop	r29
    14b0:	1f 91       	pop	r17
    14b2:	0f 91       	pop	r16
    14b4:	08 95       	ret

000014b6 <GetButtonMatrix>:

void GetButtonMatrix(char* Matrix)
{
    14b6:	df 93       	push	r29
    14b8:	cf 93       	push	r28
    14ba:	00 d0       	rcall	.+0      	; 0x14bc <GetButtonMatrix+0x6>
    14bc:	00 d0       	rcall	.+0      	; 0x14be <GetButtonMatrix+0x8>
    14be:	0f 92       	push	r0
    14c0:	cd b7       	in	r28, 0x3d	; 61
    14c2:	de b7       	in	r29, 0x3e	; 62
    14c4:	9d 83       	std	Y+5, r25	; 0x05
    14c6:	8c 83       	std	Y+4, r24	; 0x04
	for(unsigned char i = 0;i < 4;i++)
    14c8:	19 82       	std	Y+1, r1	; 0x01
    14ca:	31 c0       	rjmp	.+98     	; 0x152e <GetButtonMatrix+0x78>
	{
		SetOutputLine(i);
    14cc:	89 81       	ldd	r24, Y+1	; 0x01
    14ce:	0e 94 60 09 	call	0x12c0	; 0x12c0 <SetOutputLine>


		unsigned char tmp = PINE & 0xF0;
    14d2:	81 e2       	ldi	r24, 0x21	; 33
    14d4:	90 e0       	ldi	r25, 0x00	; 0
    14d6:	fc 01       	movw	r30, r24
    14d8:	80 81       	ld	r24, Z
    14da:	80 7f       	andi	r24, 0xF0	; 240
    14dc:	8a 83       	std	Y+2, r24	; 0x02
		tmp >>= 4;
    14de:	8a 81       	ldd	r24, Y+2	; 0x02
    14e0:	82 95       	swap	r24
    14e2:	8f 70       	andi	r24, 0x0F	; 15
    14e4:	8a 83       	std	Y+2, r24	; 0x02

		for(unsigned char j = 0;j < 4;j++)
    14e6:	1b 82       	std	Y+3, r1	; 0x03
    14e8:	17 c0       	rjmp	.+46     	; 0x1518 <GetButtonMatrix+0x62>
		{
			*(Matrix + (4 - j)) = tmp % 2;
    14ea:	8b 81       	ldd	r24, Y+3	; 0x03
    14ec:	88 2f       	mov	r24, r24
    14ee:	90 e0       	ldi	r25, 0x00	; 0
    14f0:	24 e0       	ldi	r18, 0x04	; 4
    14f2:	30 e0       	ldi	r19, 0x00	; 0
    14f4:	a9 01       	movw	r20, r18
    14f6:	48 1b       	sub	r20, r24
    14f8:	59 0b       	sbc	r21, r25
    14fa:	ca 01       	movw	r24, r20
    14fc:	2c 81       	ldd	r18, Y+4	; 0x04
    14fe:	3d 81       	ldd	r19, Y+5	; 0x05
    1500:	82 0f       	add	r24, r18
    1502:	93 1f       	adc	r25, r19
    1504:	2a 81       	ldd	r18, Y+2	; 0x02
    1506:	21 70       	andi	r18, 0x01	; 1
    1508:	fc 01       	movw	r30, r24
    150a:	20 83       	st	Z, r18
			tmp /= 2;
    150c:	8a 81       	ldd	r24, Y+2	; 0x02
    150e:	86 95       	lsr	r24
    1510:	8a 83       	std	Y+2, r24	; 0x02


		unsigned char tmp = PINE & 0xF0;
		tmp >>= 4;

		for(unsigned char j = 0;j < 4;j++)
    1512:	8b 81       	ldd	r24, Y+3	; 0x03
    1514:	8f 5f       	subi	r24, 0xFF	; 255
    1516:	8b 83       	std	Y+3, r24	; 0x03
    1518:	8b 81       	ldd	r24, Y+3	; 0x03
    151a:	84 30       	cpi	r24, 0x04	; 4
    151c:	30 f3       	brcs	.-52     	; 0x14ea <GetButtonMatrix+0x34>
		{
			*(Matrix + (4 - j)) = tmp % 2;
			tmp /= 2;
		}

		Matrix += 4;
    151e:	8c 81       	ldd	r24, Y+4	; 0x04
    1520:	9d 81       	ldd	r25, Y+5	; 0x05
    1522:	04 96       	adiw	r24, 0x04	; 4
    1524:	9d 83       	std	Y+5, r25	; 0x05
    1526:	8c 83       	std	Y+4, r24	; 0x04
	_delay_us(10);
}

void GetButtonMatrix(char* Matrix)
{
	for(unsigned char i = 0;i < 4;i++)
    1528:	89 81       	ldd	r24, Y+1	; 0x01
    152a:	8f 5f       	subi	r24, 0xFF	; 255
    152c:	89 83       	std	Y+1, r24	; 0x01
    152e:	89 81       	ldd	r24, Y+1	; 0x01
    1530:	84 30       	cpi	r24, 0x04	; 4
    1532:	60 f2       	brcs	.-104    	; 0x14cc <GetButtonMatrix+0x16>
			tmp /= 2;
		}

		Matrix += 4;
	}
}
    1534:	0f 90       	pop	r0
    1536:	0f 90       	pop	r0
    1538:	0f 90       	pop	r0
    153a:	0f 90       	pop	r0
    153c:	0f 90       	pop	r0
    153e:	cf 91       	pop	r28
    1540:	df 91       	pop	r29
    1542:	08 95       	ret

00001544 <GetButtonState>:

char GetButtonState(unsigned x, unsigned y)
{
    1544:	df 93       	push	r29
    1546:	cf 93       	push	r28
    1548:	00 d0       	rcall	.+0      	; 0x154a <GetButtonState+0x6>
    154a:	00 d0       	rcall	.+0      	; 0x154c <GetButtonState+0x8>
    154c:	cd b7       	in	r28, 0x3d	; 61
    154e:	de b7       	in	r29, 0x3e	; 62
    1550:	9a 83       	std	Y+2, r25	; 0x02
    1552:	89 83       	std	Y+1, r24	; 0x01
    1554:	7c 83       	std	Y+4, r23	; 0x04
    1556:	6b 83       	std	Y+3, r22	; 0x03
	SetOutputLine(y);
    1558:	8b 81       	ldd	r24, Y+3	; 0x03
    155a:	0e 94 60 09 	call	0x12c0	; 0x12c0 <SetOutputLine>
	return ((PINE & 0xF0) >> 4) >> x;
    155e:	81 e2       	ldi	r24, 0x21	; 33
    1560:	90 e0       	ldi	r25, 0x00	; 0
    1562:	fc 01       	movw	r30, r24
    1564:	80 81       	ld	r24, Z
    1566:	82 95       	swap	r24
    1568:	8f 70       	andi	r24, 0x0F	; 15
    156a:	88 2f       	mov	r24, r24
    156c:	90 e0       	ldi	r25, 0x00	; 0
    156e:	90 70       	andi	r25, 0x00	; 0
    1570:	29 81       	ldd	r18, Y+1	; 0x01
    1572:	3a 81       	ldd	r19, Y+2	; 0x02
    1574:	02 2e       	mov	r0, r18
    1576:	02 c0       	rjmp	.+4      	; 0x157c <GetButtonState+0x38>
    1578:	95 95       	asr	r25
    157a:	87 95       	ror	r24
    157c:	0a 94       	dec	r0
    157e:	e2 f7       	brpl	.-8      	; 0x1578 <GetButtonState+0x34>
}
    1580:	0f 90       	pop	r0
    1582:	0f 90       	pop	r0
    1584:	0f 90       	pop	r0
    1586:	0f 90       	pop	r0
    1588:	cf 91       	pop	r28
    158a:	df 91       	pop	r29
    158c:	08 95       	ret

0000158e <Input>:

void Input()
{
    158e:	df 93       	push	r29
    1590:	cf 93       	push	r28
    1592:	0f 92       	push	r0
    1594:	cd b7       	in	r28, 0x3d	; 61
    1596:	de b7       	in	r29, 0x3e	; 62
	char tmp = 0x00;
    1598:	19 82       	std	Y+1, r1	; 0x01
	CurrKey = 0;
    159a:	10 92 0f 01 	sts	0x010F, r1
    159e:	10 92 0e 01 	sts	0x010E, r1

	for(tmp = 0;tmp < 4;tmp++)
    15a2:	19 82       	std	Y+1, r1	; 0x01
    15a4:	2a c0       	rjmp	.+84     	; 0x15fa <Input+0x6c>
	{
		SetOutputLine(tmp);
    15a6:	89 81       	ldd	r24, Y+1	; 0x01
    15a8:	0e 94 60 09 	call	0x12c0	; 0x12c0 <SetOutputLine>
		CurrKey += PINE & 0x0F;
    15ac:	81 e2       	ldi	r24, 0x21	; 33
    15ae:	90 e0       	ldi	r25, 0x00	; 0
    15b0:	fc 01       	movw	r30, r24
    15b2:	80 81       	ld	r24, Z
    15b4:	88 2f       	mov	r24, r24
    15b6:	90 e0       	ldi	r25, 0x00	; 0
    15b8:	9c 01       	movw	r18, r24
    15ba:	2f 70       	andi	r18, 0x0F	; 15
    15bc:	30 70       	andi	r19, 0x00	; 0
    15be:	80 91 0e 01 	lds	r24, 0x010E
    15c2:	90 91 0f 01 	lds	r25, 0x010F
    15c6:	82 0f       	add	r24, r18
    15c8:	93 1f       	adc	r25, r19
    15ca:	90 93 0f 01 	sts	0x010F, r25
    15ce:	80 93 0e 01 	sts	0x010E, r24
		
		if(tmp == 3) break;
    15d2:	89 81       	ldd	r24, Y+1	; 0x01
    15d4:	83 30       	cpi	r24, 0x03	; 3
    15d6:	a9 f0       	breq	.+42     	; 0x1602 <Input+0x74>
		
		CurrKey <<= 4;
    15d8:	80 91 0e 01 	lds	r24, 0x010E
    15dc:	90 91 0f 01 	lds	r25, 0x010F
    15e0:	82 95       	swap	r24
    15e2:	92 95       	swap	r25
    15e4:	90 7f       	andi	r25, 0xF0	; 240
    15e6:	98 27       	eor	r25, r24
    15e8:	80 7f       	andi	r24, 0xF0	; 240
    15ea:	98 27       	eor	r25, r24
    15ec:	90 93 0f 01 	sts	0x010F, r25
    15f0:	80 93 0e 01 	sts	0x010E, r24
void Input()
{
	char tmp = 0x00;
	CurrKey = 0;

	for(tmp = 0;tmp < 4;tmp++)
    15f4:	89 81       	ldd	r24, Y+1	; 0x01
    15f6:	8f 5f       	subi	r24, 0xFF	; 255
    15f8:	89 83       	std	Y+1, r24	; 0x01
    15fa:	89 81       	ldd	r24, Y+1	; 0x01
    15fc:	84 30       	cpi	r24, 0x04	; 4
    15fe:	98 f2       	brcs	.-90     	; 0x15a6 <Input+0x18>
    1600:	01 c0       	rjmp	.+2      	; 0x1604 <Input+0x76>
	{
		SetOutputLine(tmp);
		CurrKey += PINE & 0x0F;
		
		if(tmp == 3) break;
    1602:	00 00       	nop
		
		CurrKey <<= 4;
	}
}
    1604:	0f 90       	pop	r0
    1606:	cf 91       	pop	r28
    1608:	df 91       	pop	r29
    160a:	08 95       	ret

0000160c <InputProcess>:
	


char InputProcess()
{
    160c:	df 93       	push	r29
    160e:	cf 93       	push	r28
    1610:	cd b7       	in	r28, 0x3d	; 61
    1612:	de b7       	in	r29, 0x3e	; 62
		else if(tmp == 0x08)
			return 4;
	}
*/

	Input();
    1614:	0e 94 c7 0a 	call	0x158e	; 0x158e <Input>
	
	if(PrevKey != CurrKey)
    1618:	20 91 0c 01 	lds	r18, 0x010C
    161c:	30 91 0d 01 	lds	r19, 0x010D
    1620:	80 91 0e 01 	lds	r24, 0x010E
    1624:	90 91 0f 01 	lds	r25, 0x010F
    1628:	28 17       	cp	r18, r24
    162a:	39 07       	cpc	r19, r25
    162c:	71 f1       	breq	.+92     	; 0x168a <InputProcess+0x7e>
	{
		PrevKey = CurrKey;
    162e:	80 91 0e 01 	lds	r24, 0x010E
    1632:	90 91 0f 01 	lds	r25, 0x010F
    1636:	90 93 0d 01 	sts	0x010D, r25
    163a:	80 93 0c 01 	sts	0x010C, r24

		if(CurrKey == 0x0001)
    163e:	80 91 0e 01 	lds	r24, 0x010E
    1642:	90 91 0f 01 	lds	r25, 0x010F
    1646:	81 30       	cpi	r24, 0x01	; 1
    1648:	91 05       	cpc	r25, r1
    164a:	11 f4       	brne	.+4      	; 0x1650 <InputProcess+0x44>
			return 1;
    164c:	81 e0       	ldi	r24, 0x01	; 1
    164e:	1e c0       	rjmp	.+60     	; 0x168c <InputProcess+0x80>
			
		if(CurrKey == 0x0010)
    1650:	80 91 0e 01 	lds	r24, 0x010E
    1654:	90 91 0f 01 	lds	r25, 0x010F
    1658:	80 31       	cpi	r24, 0x10	; 16
    165a:	91 05       	cpc	r25, r1
    165c:	11 f4       	brne	.+4      	; 0x1662 <InputProcess+0x56>
			return 2;
    165e:	82 e0       	ldi	r24, 0x02	; 2
    1660:	15 c0       	rjmp	.+42     	; 0x168c <InputProcess+0x80>
		
		if(CurrKey == 0x0100)
    1662:	80 91 0e 01 	lds	r24, 0x010E
    1666:	90 91 0f 01 	lds	r25, 0x010F
    166a:	21 e0       	ldi	r18, 0x01	; 1
    166c:	80 30       	cpi	r24, 0x00	; 0
    166e:	92 07       	cpc	r25, r18
    1670:	11 f4       	brne	.+4      	; 0x1676 <InputProcess+0x6a>
			return 3;
    1672:	83 e0       	ldi	r24, 0x03	; 3
    1674:	0b c0       	rjmp	.+22     	; 0x168c <InputProcess+0x80>
			
		if(CurrKey == 0x1000)
    1676:	80 91 0e 01 	lds	r24, 0x010E
    167a:	90 91 0f 01 	lds	r25, 0x010F
    167e:	20 e1       	ldi	r18, 0x10	; 16
    1680:	80 30       	cpi	r24, 0x00	; 0
    1682:	92 07       	cpc	r25, r18
    1684:	11 f4       	brne	.+4      	; 0x168a <InputProcess+0x7e>
			return 4;
    1686:	84 e0       	ldi	r24, 0x04	; 4
    1688:	01 c0       	rjmp	.+2      	; 0x168c <InputProcess+0x80>
	}

	return 0;
    168a:	80 e0       	ldi	r24, 0x00	; 0
}
    168c:	cf 91       	pop	r28
    168e:	df 91       	pop	r29
    1690:	08 95       	ret

00001692 <GetCurrKey>:

int GetCurrKey()
{
    1692:	df 93       	push	r29
    1694:	cf 93       	push	r28
    1696:	cd b7       	in	r28, 0x3d	; 61
    1698:	de b7       	in	r29, 0x3e	; 62
	return CurrKey;
    169a:	80 91 0e 01 	lds	r24, 0x010E
    169e:	90 91 0f 01 	lds	r25, 0x010F
}
    16a2:	cf 91       	pop	r28
    16a4:	df 91       	pop	r29
    16a6:	08 95       	ret

000016a8 <WriteTime>:

char Hours, Minutes, Seconds;
char TimeCounter = 0;

void WriteTime()
{
    16a8:	df 93       	push	r29
    16aa:	cf 93       	push	r28
    16ac:	0f 92       	push	r0
    16ae:	cd b7       	in	r28, 0x3d	; 61
    16b0:	de b7       	in	r29, 0x3e	; 62
	char tmp;
	Set_Data_Memory_Address(0x00);
    16b2:	80 e0       	ldi	r24, 0x00	; 0
    16b4:	0e 94 02 09 	call	0x1204	; 0x1204 <Set_Data_Memory_Address>

	tmp = Hours;
    16b8:	80 91 11 01 	lds	r24, 0x0111
    16bc:	89 83       	std	Y+1, r24	; 0x01
	LCD_Data('0' + (char)(tmp / 10));
    16be:	89 81       	ldd	r24, Y+1	; 0x01
    16c0:	9a e0       	ldi	r25, 0x0A	; 10
    16c2:	69 2f       	mov	r22, r25
    16c4:	0e 94 6b 12 	call	0x24d6	; 0x24d6 <__udivmodqi4>
    16c8:	80 5d       	subi	r24, 0xD0	; 208
    16ca:	0e 94 bf 02 	call	0x57e	; 0x57e <LCD_Data>
	LCD_Data('0' + (char)(tmp % 10));
    16ce:	89 81       	ldd	r24, Y+1	; 0x01
    16d0:	9a e0       	ldi	r25, 0x0A	; 10
    16d2:	69 2f       	mov	r22, r25
    16d4:	0e 94 6b 12 	call	0x24d6	; 0x24d6 <__udivmodqi4>
    16d8:	89 2f       	mov	r24, r25
    16da:	80 5d       	subi	r24, 0xD0	; 208
    16dc:	0e 94 bf 02 	call	0x57e	; 0x57e <LCD_Data>

	LCD_Data(':');
    16e0:	8a e3       	ldi	r24, 0x3A	; 58
    16e2:	0e 94 bf 02 	call	0x57e	; 0x57e <LCD_Data>

	tmp = Minutes;
    16e6:	80 91 12 01 	lds	r24, 0x0112
    16ea:	89 83       	std	Y+1, r24	; 0x01
	LCD_Data('0' + (char)(tmp / 10));
    16ec:	89 81       	ldd	r24, Y+1	; 0x01
    16ee:	9a e0       	ldi	r25, 0x0A	; 10
    16f0:	69 2f       	mov	r22, r25
    16f2:	0e 94 6b 12 	call	0x24d6	; 0x24d6 <__udivmodqi4>
    16f6:	80 5d       	subi	r24, 0xD0	; 208
    16f8:	0e 94 bf 02 	call	0x57e	; 0x57e <LCD_Data>
	LCD_Data('0' + (char)(tmp % 10));
    16fc:	89 81       	ldd	r24, Y+1	; 0x01
    16fe:	9a e0       	ldi	r25, 0x0A	; 10
    1700:	69 2f       	mov	r22, r25
    1702:	0e 94 6b 12 	call	0x24d6	; 0x24d6 <__udivmodqi4>
    1706:	89 2f       	mov	r24, r25
    1708:	80 5d       	subi	r24, 0xD0	; 208
    170a:	0e 94 bf 02 	call	0x57e	; 0x57e <LCD_Data>

	LCD_Data(':');
    170e:	8a e3       	ldi	r24, 0x3A	; 58
    1710:	0e 94 bf 02 	call	0x57e	; 0x57e <LCD_Data>

	tmp = Seconds;
    1714:	80 91 13 01 	lds	r24, 0x0113
    1718:	89 83       	std	Y+1, r24	; 0x01
	LCD_Data('0' + (char)(tmp / 10));
    171a:	89 81       	ldd	r24, Y+1	; 0x01
    171c:	9a e0       	ldi	r25, 0x0A	; 10
    171e:	69 2f       	mov	r22, r25
    1720:	0e 94 6b 12 	call	0x24d6	; 0x24d6 <__udivmodqi4>
    1724:	80 5d       	subi	r24, 0xD0	; 208
    1726:	0e 94 bf 02 	call	0x57e	; 0x57e <LCD_Data>
	LCD_Data('0' + (char)(tmp % 10));
    172a:	89 81       	ldd	r24, Y+1	; 0x01
    172c:	9a e0       	ldi	r25, 0x0A	; 10
    172e:	69 2f       	mov	r22, r25
    1730:	0e 94 6b 12 	call	0x24d6	; 0x24d6 <__udivmodqi4>
    1734:	89 2f       	mov	r24, r25
    1736:	80 5d       	subi	r24, 0xD0	; 208
    1738:	0e 94 bf 02 	call	0x57e	; 0x57e <LCD_Data>
}
    173c:	0f 90       	pop	r0
    173e:	cf 91       	pop	r28
    1740:	df 91       	pop	r29
    1742:	08 95       	ret

00001744 <main>:

int main()
{
    1744:	df 93       	push	r29
    1746:	cf 93       	push	r28
    1748:	00 d0       	rcall	.+0      	; 0x174a <main+0x6>
    174a:	cd b7       	in	r28, 0x3d	; 61
    174c:	de b7       	in	r29, 0x3e	; 62
	char cnt = 0;
    174e:	19 82       	std	Y+1, r1	; 0x01
	char tmp = 0;
    1750:	1a 82       	std	Y+2, r1	; 0x02

	Hours = Minutes = Seconds = 0;
    1752:	10 92 13 01 	sts	0x0113, r1
    1756:	80 91 13 01 	lds	r24, 0x0113
    175a:	80 93 12 01 	sts	0x0112, r24
    175e:	80 91 12 01 	lds	r24, 0x0112
    1762:	80 93 11 01 	sts	0x0111, r24

	DDRA = 0xFF;
    1766:	8a e3       	ldi	r24, 0x3A	; 58
    1768:	90 e0       	ldi	r25, 0x00	; 0
    176a:	2f ef       	ldi	r18, 0xFF	; 255
    176c:	fc 01       	movw	r30, r24
    176e:	20 83       	st	Z, r18
	DDRC = 0xFF;
    1770:	84 e3       	ldi	r24, 0x34	; 52
    1772:	90 e0       	ldi	r25, 0x00	; 0
    1774:	2f ef       	ldi	r18, 0xFF	; 255
    1776:	fc 01       	movw	r30, r24
    1778:	20 83       	st	Z, r18

	DDRE = 0x00;
    177a:	82 e2       	ldi	r24, 0x22	; 34
    177c:	90 e0       	ldi	r25, 0x00	; 0
    177e:	fc 01       	movw	r30, r24
    1780:	10 82       	st	Z, r1
	DDRD = 0xFF;
    1782:	81 e3       	ldi	r24, 0x31	; 49
    1784:	90 e0       	ldi	r25, 0x00	; 0
    1786:	2f ef       	ldi	r18, 0xFF	; 255
    1788:	fc 01       	movw	r30, r24
    178a:	20 83       	st	Z, r18

	InitLCD();
    178c:	0e 94 c6 05 	call	0xb8c	; 0xb8c <InitLCD>
	
	TCCR0 = 0b00000111;
    1790:	83 e5       	ldi	r24, 0x53	; 83
    1792:	90 e0       	ldi	r25, 0x00	; 0
    1794:	27 e0       	ldi	r18, 0x07	; 7
    1796:	fc 01       	movw	r30, r24
    1798:	20 83       	st	Z, r18
	TCNT0 = 130;
    179a:	82 e5       	ldi	r24, 0x52	; 82
    179c:	90 e0       	ldi	r25, 0x00	; 0
    179e:	22 e8       	ldi	r18, 0x82	; 130
    17a0:	fc 01       	movw	r30, r24
    17a2:	20 83       	st	Z, r18
	TIMSK = 0x01;
    17a4:	87 e5       	ldi	r24, 0x57	; 87
    17a6:	90 e0       	ldi	r25, 0x00	; 0
    17a8:	21 e0       	ldi	r18, 0x01	; 1
    17aa:	fc 01       	movw	r30, r24
    17ac:	20 83       	st	Z, r18

	SREG = 0x80;
    17ae:	8f e5       	ldi	r24, 0x5F	; 95
    17b0:	90 e0       	ldi	r25, 0x00	; 0
    17b2:	20 e8       	ldi	r18, 0x80	; 128
    17b4:	fc 01       	movw	r30, r24
    17b6:	20 83       	st	Z, r18
	//LCD_WriteString("TESTING");

	WriteTime();
    17b8:	0e 94 54 0b 	call	0x16a8	; 0x16a8 <WriteTime>
	SetOutputLine(0);
    17bc:	80 e0       	ldi	r24, 0x00	; 0
    17be:	0e 94 60 09 	call	0x12c0	; 0x12c0 <SetOutputLine>
    17c2:	03 c0       	rjmp	.+6      	; 0x17ca <main+0x86>
		{
			if(Hours == 0) Hours = 24;

			Hours--;
		}
	}	
    17c4:	00 00       	nop
    17c6:	01 c0       	rjmp	.+2      	; 0x17ca <main+0x86>
    17c8:	00 00       	nop
	WriteTime();
	SetOutputLine(0);

	while(1)
	{
		WriteTime();
    17ca:	0e 94 54 0b 	call	0x16a8	; 0x16a8 <WriteTime>
		
		if(TimeCounter >= 125)
    17ce:	80 91 10 01 	lds	r24, 0x0110
    17d2:	8d 37       	cpi	r24, 0x7D	; 125
    17d4:	30 f1       	brcs	.+76     	; 0x1822 <main+0xde>
		{
			TimeCounter -= 125;
    17d6:	80 91 10 01 	lds	r24, 0x0110
    17da:	8d 57       	subi	r24, 0x7D	; 125
    17dc:	80 93 10 01 	sts	0x0110, r24
			Seconds++;
    17e0:	80 91 13 01 	lds	r24, 0x0113
    17e4:	8f 5f       	subi	r24, 0xFF	; 255
    17e6:	80 93 13 01 	sts	0x0113, r24
			if(Seconds == 60)
    17ea:	80 91 13 01 	lds	r24, 0x0113
    17ee:	8c 33       	cpi	r24, 0x3C	; 60
    17f0:	c1 f4       	brne	.+48     	; 0x1822 <main+0xde>
			{
				Minutes++;
    17f2:	80 91 12 01 	lds	r24, 0x0112
    17f6:	8f 5f       	subi	r24, 0xFF	; 255
    17f8:	80 93 12 01 	sts	0x0112, r24
				Seconds = 0;
    17fc:	10 92 13 01 	sts	0x0113, r1

				if(Minutes == 60)
    1800:	80 91 12 01 	lds	r24, 0x0112
    1804:	8c 33       	cpi	r24, 0x3C	; 60
    1806:	69 f4       	brne	.+26     	; 0x1822 <main+0xde>
				{
					Hours++;
    1808:	80 91 11 01 	lds	r24, 0x0111
    180c:	8f 5f       	subi	r24, 0xFF	; 255
    180e:	80 93 11 01 	sts	0x0111, r24
					Minutes = 0;
    1812:	10 92 12 01 	sts	0x0112, r1

					if(Hours == 24)
    1816:	80 91 11 01 	lds	r24, 0x0111
    181a:	88 31       	cpi	r24, 0x18	; 24
    181c:	11 f4       	brne	.+4      	; 0x1822 <main+0xde>
						Hours = 0;
    181e:	10 92 11 01 	sts	0x0111, r1
				}
			}
		}

		tmp = InputProcess();
    1822:	0e 94 06 0b 	call	0x160c	; 0x160c <InputProcess>
    1826:	8a 83       	std	Y+2, r24	; 0x02

		if(tmp == 2)
    1828:	8a 81       	ldd	r24, Y+2	; 0x02
    182a:	82 30       	cpi	r24, 0x02	; 2
    182c:	61 f4       	brne	.+24     	; 0x1846 <main+0x102>
		{
			Minutes++;
    182e:	80 91 12 01 	lds	r24, 0x0112
    1832:	8f 5f       	subi	r24, 0xFF	; 255
    1834:	80 93 12 01 	sts	0x0112, r24

			if(Minutes == 60) Minutes = 0;
    1838:	80 91 12 01 	lds	r24, 0x0112
    183c:	8c 33       	cpi	r24, 0x3C	; 60
    183e:	91 f4       	brne	.+36     	; 0x1864 <main+0x120>
    1840:	10 92 12 01 	sts	0x0112, r1
    1844:	0f c0       	rjmp	.+30     	; 0x1864 <main+0x120>
		}
		else if(tmp == 1)
    1846:	8a 81       	ldd	r24, Y+2	; 0x02
    1848:	81 30       	cpi	r24, 0x01	; 1
    184a:	61 f4       	brne	.+24     	; 0x1864 <main+0x120>
		{
			if(Minutes == 0) Minutes = 60;
    184c:	80 91 12 01 	lds	r24, 0x0112
    1850:	88 23       	and	r24, r24
    1852:	19 f4       	brne	.+6      	; 0x185a <main+0x116>
    1854:	8c e3       	ldi	r24, 0x3C	; 60
    1856:	80 93 12 01 	sts	0x0112, r24

			Minutes--;
    185a:	80 91 12 01 	lds	r24, 0x0112
    185e:	81 50       	subi	r24, 0x01	; 1
    1860:	80 93 12 01 	sts	0x0112, r24
		}
		

		if(tmp == 4)
    1864:	8a 81       	ldd	r24, Y+2	; 0x02
    1866:	84 30       	cpi	r24, 0x04	; 4
    1868:	69 f4       	brne	.+26     	; 0x1884 <main+0x140>
		{
			Hours++;
    186a:	80 91 11 01 	lds	r24, 0x0111
    186e:	8f 5f       	subi	r24, 0xFF	; 255
    1870:	80 93 11 01 	sts	0x0111, r24
			
			if(Hours == 24) Hours = 0;
    1874:	80 91 11 01 	lds	r24, 0x0111
    1878:	88 31       	cpi	r24, 0x18	; 24
    187a:	09 f0       	breq	.+2      	; 0x187e <main+0x13a>
    187c:	a3 cf       	rjmp	.-186    	; 0x17c4 <main+0x80>
    187e:	10 92 11 01 	sts	0x0111, r1
		{
			if(Hours == 0) Hours = 24;

			Hours--;
		}
	}	
    1882:	a3 cf       	rjmp	.-186    	; 0x17ca <main+0x86>
		{
			Hours++;
			
			if(Hours == 24) Hours = 0;
		}
		else if(tmp == 3)
    1884:	8a 81       	ldd	r24, Y+2	; 0x02
    1886:	83 30       	cpi	r24, 0x03	; 3
    1888:	09 f0       	breq	.+2      	; 0x188c <main+0x148>
    188a:	9e cf       	rjmp	.-196    	; 0x17c8 <main+0x84>
		{
			if(Hours == 0) Hours = 24;
    188c:	80 91 11 01 	lds	r24, 0x0111
    1890:	88 23       	and	r24, r24
    1892:	19 f4       	brne	.+6      	; 0x189a <main+0x156>
    1894:	88 e1       	ldi	r24, 0x18	; 24
    1896:	80 93 11 01 	sts	0x0111, r24

			Hours--;
    189a:	80 91 11 01 	lds	r24, 0x0111
    189e:	81 50       	subi	r24, 0x01	; 1
    18a0:	80 93 11 01 	sts	0x0111, r24
		}
	}	
    18a4:	92 cf       	rjmp	.-220    	; 0x17ca <main+0x86>

000018a6 <__vector_16>:
}


ISR(TIMER0_OVF_vect)
{
    18a6:	1f 92       	push	r1
    18a8:	0f 92       	push	r0
    18aa:	0f b6       	in	r0, 0x3f	; 63
    18ac:	0f 92       	push	r0
    18ae:	00 90 5b 00 	lds	r0, 0x005B
    18b2:	0f 92       	push	r0
    18b4:	11 24       	eor	r1, r1
    18b6:	2f 93       	push	r18
    18b8:	8f 93       	push	r24
    18ba:	9f 93       	push	r25
    18bc:	ef 93       	push	r30
    18be:	ff 93       	push	r31
    18c0:	df 93       	push	r29
    18c2:	cf 93       	push	r28
    18c4:	cd b7       	in	r28, 0x3d	; 61
    18c6:	de b7       	in	r29, 0x3e	; 62
	TimeCounter+= 16;
    18c8:	80 91 10 01 	lds	r24, 0x0110
    18cc:	80 5f       	subi	r24, 0xF0	; 240
    18ce:	80 93 10 01 	sts	0x0110, r24
	TCNT0 = 256-125;
    18d2:	82 e5       	ldi	r24, 0x52	; 82
    18d4:	90 e0       	ldi	r25, 0x00	; 0
    18d6:	23 e8       	ldi	r18, 0x83	; 131
    18d8:	fc 01       	movw	r30, r24
    18da:	20 83       	st	Z, r18
}
    18dc:	cf 91       	pop	r28
    18de:	df 91       	pop	r29
    18e0:	ff 91       	pop	r31
    18e2:	ef 91       	pop	r30
    18e4:	9f 91       	pop	r25
    18e6:	8f 91       	pop	r24
    18e8:	2f 91       	pop	r18
    18ea:	0f 90       	pop	r0
    18ec:	00 92 5b 00 	sts	0x005B, r0
    18f0:	0f 90       	pop	r0
    18f2:	0f be       	out	0x3f, r0	; 63
    18f4:	0f 90       	pop	r0
    18f6:	1f 90       	pop	r1
    18f8:	18 95       	reti

000018fa <__fixunssfsi>:
    18fa:	ef 92       	push	r14
    18fc:	ff 92       	push	r15
    18fe:	0f 93       	push	r16
    1900:	1f 93       	push	r17
    1902:	7b 01       	movw	r14, r22
    1904:	8c 01       	movw	r16, r24
    1906:	20 e0       	ldi	r18, 0x00	; 0
    1908:	30 e0       	ldi	r19, 0x00	; 0
    190a:	40 e0       	ldi	r20, 0x00	; 0
    190c:	5f e4       	ldi	r21, 0x4F	; 79
    190e:	0e 94 29 10 	call	0x2052	; 0x2052 <__gesf2>
    1912:	87 fd       	sbrc	r24, 7
    1914:	11 c0       	rjmp	.+34     	; 0x1938 <__fixunssfsi+0x3e>
    1916:	c8 01       	movw	r24, r16
    1918:	b7 01       	movw	r22, r14
    191a:	20 e0       	ldi	r18, 0x00	; 0
    191c:	30 e0       	ldi	r19, 0x00	; 0
    191e:	40 e0       	ldi	r20, 0x00	; 0
    1920:	5f e4       	ldi	r21, 0x4F	; 79
    1922:	0e 94 20 0e 	call	0x1c40	; 0x1c40 <__subsf3>
    1926:	0e 94 89 10 	call	0x2112	; 0x2112 <__fixsfsi>
    192a:	9b 01       	movw	r18, r22
    192c:	ac 01       	movw	r20, r24
    192e:	20 50       	subi	r18, 0x00	; 0
    1930:	30 40       	sbci	r19, 0x00	; 0
    1932:	40 40       	sbci	r20, 0x00	; 0
    1934:	50 48       	sbci	r21, 0x80	; 128
    1936:	06 c0       	rjmp	.+12     	; 0x1944 <__fixunssfsi+0x4a>
    1938:	c8 01       	movw	r24, r16
    193a:	b7 01       	movw	r22, r14
    193c:	0e 94 89 10 	call	0x2112	; 0x2112 <__fixsfsi>
    1940:	9b 01       	movw	r18, r22
    1942:	ac 01       	movw	r20, r24
    1944:	b9 01       	movw	r22, r18
    1946:	ca 01       	movw	r24, r20
    1948:	1f 91       	pop	r17
    194a:	0f 91       	pop	r16
    194c:	ff 90       	pop	r15
    194e:	ef 90       	pop	r14
    1950:	08 95       	ret

00001952 <_fpadd_parts>:
    1952:	a0 e0       	ldi	r26, 0x00	; 0
    1954:	b0 e0       	ldi	r27, 0x00	; 0
    1956:	ef ea       	ldi	r30, 0xAF	; 175
    1958:	fc e0       	ldi	r31, 0x0C	; 12
    195a:	0c 94 7b 12 	jmp	0x24f6	; 0x24f6 <__prologue_saves__+0x8>
    195e:	fc 01       	movw	r30, r24
    1960:	ea 01       	movw	r28, r20
    1962:	80 81       	ld	r24, Z
    1964:	82 30       	cpi	r24, 0x02	; 2
    1966:	08 f4       	brcc	.+2      	; 0x196a <_fpadd_parts+0x18>
    1968:	38 c1       	rjmp	.+624    	; 0x1bda <_fpadd_parts+0x288>
    196a:	db 01       	movw	r26, r22
    196c:	9c 91       	ld	r25, X
    196e:	92 30       	cpi	r25, 0x02	; 2
    1970:	08 f4       	brcc	.+2      	; 0x1974 <_fpadd_parts+0x22>
    1972:	30 c1       	rjmp	.+608    	; 0x1bd4 <_fpadd_parts+0x282>
    1974:	84 30       	cpi	r24, 0x04	; 4
    1976:	59 f4       	brne	.+22     	; 0x198e <_fpadd_parts+0x3c>
    1978:	94 30       	cpi	r25, 0x04	; 4
    197a:	09 f0       	breq	.+2      	; 0x197e <_fpadd_parts+0x2c>
    197c:	2e c1       	rjmp	.+604    	; 0x1bda <_fpadd_parts+0x288>
    197e:	91 81       	ldd	r25, Z+1	; 0x01
    1980:	11 96       	adiw	r26, 0x01	; 1
    1982:	8c 91       	ld	r24, X
    1984:	11 97       	sbiw	r26, 0x01	; 1
    1986:	98 17       	cp	r25, r24
    1988:	09 f0       	breq	.+2      	; 0x198c <_fpadd_parts+0x3a>
    198a:	21 c1       	rjmp	.+578    	; 0x1bce <_fpadd_parts+0x27c>
    198c:	26 c1       	rjmp	.+588    	; 0x1bda <_fpadd_parts+0x288>
    198e:	94 30       	cpi	r25, 0x04	; 4
    1990:	09 f4       	brne	.+2      	; 0x1994 <_fpadd_parts+0x42>
    1992:	20 c1       	rjmp	.+576    	; 0x1bd4 <_fpadd_parts+0x282>
    1994:	92 30       	cpi	r25, 0x02	; 2
    1996:	b1 f4       	brne	.+44     	; 0x19c4 <_fpadd_parts+0x72>
    1998:	82 30       	cpi	r24, 0x02	; 2
    199a:	09 f0       	breq	.+2      	; 0x199e <_fpadd_parts+0x4c>
    199c:	1e c1       	rjmp	.+572    	; 0x1bda <_fpadd_parts+0x288>
    199e:	ca 01       	movw	r24, r20
    19a0:	af 01       	movw	r20, r30
    19a2:	28 e0       	ldi	r18, 0x08	; 8
    19a4:	da 01       	movw	r26, r20
    19a6:	0d 90       	ld	r0, X+
    19a8:	ad 01       	movw	r20, r26
    19aa:	dc 01       	movw	r26, r24
    19ac:	0d 92       	st	X+, r0
    19ae:	cd 01       	movw	r24, r26
    19b0:	21 50       	subi	r18, 0x01	; 1
    19b2:	c1 f7       	brne	.-16     	; 0x19a4 <_fpadd_parts+0x52>
    19b4:	db 01       	movw	r26, r22
    19b6:	11 96       	adiw	r26, 0x01	; 1
    19b8:	8c 91       	ld	r24, X
    19ba:	11 97       	sbiw	r26, 0x01	; 1
    19bc:	91 81       	ldd	r25, Z+1	; 0x01
    19be:	89 23       	and	r24, r25
    19c0:	89 83       	std	Y+1, r24	; 0x01
    19c2:	0a c1       	rjmp	.+532    	; 0x1bd8 <_fpadd_parts+0x286>
    19c4:	82 30       	cpi	r24, 0x02	; 2
    19c6:	09 f4       	brne	.+2      	; 0x19ca <_fpadd_parts+0x78>
    19c8:	05 c1       	rjmp	.+522    	; 0x1bd4 <_fpadd_parts+0x282>
    19ca:	c2 80       	ldd	r12, Z+2	; 0x02
    19cc:	d3 80       	ldd	r13, Z+3	; 0x03
    19ce:	db 01       	movw	r26, r22
    19d0:	12 96       	adiw	r26, 0x02	; 2
    19d2:	6d 90       	ld	r6, X+
    19d4:	7c 90       	ld	r7, X
    19d6:	13 97       	sbiw	r26, 0x03	; 3
    19d8:	24 81       	ldd	r18, Z+4	; 0x04
    19da:	35 81       	ldd	r19, Z+5	; 0x05
    19dc:	46 81       	ldd	r20, Z+6	; 0x06
    19de:	57 81       	ldd	r21, Z+7	; 0x07
    19e0:	14 96       	adiw	r26, 0x04	; 4
    19e2:	ed 90       	ld	r14, X+
    19e4:	fd 90       	ld	r15, X+
    19e6:	0d 91       	ld	r16, X+
    19e8:	1c 91       	ld	r17, X
    19ea:	17 97       	sbiw	r26, 0x07	; 7
    19ec:	c6 01       	movw	r24, r12
    19ee:	86 19       	sub	r24, r6
    19f0:	97 09       	sbc	r25, r7
    19f2:	5c 01       	movw	r10, r24
    19f4:	97 ff       	sbrs	r25, 7
    19f6:	04 c0       	rjmp	.+8      	; 0x1a00 <_fpadd_parts+0xae>
    19f8:	aa 24       	eor	r10, r10
    19fa:	bb 24       	eor	r11, r11
    19fc:	a8 1a       	sub	r10, r24
    19fe:	b9 0a       	sbc	r11, r25
    1a00:	b0 e2       	ldi	r27, 0x20	; 32
    1a02:	ab 16       	cp	r10, r27
    1a04:	b1 04       	cpc	r11, r1
    1a06:	0c f0       	brlt	.+2      	; 0x1a0a <_fpadd_parts+0xb8>
    1a08:	61 c0       	rjmp	.+194    	; 0x1acc <_fpadd_parts+0x17a>
    1a0a:	18 16       	cp	r1, r24
    1a0c:	19 06       	cpc	r1, r25
    1a0e:	6c f5       	brge	.+90     	; 0x1a6a <_fpadd_parts+0x118>
    1a10:	37 01       	movw	r6, r14
    1a12:	48 01       	movw	r8, r16
    1a14:	0a 2c       	mov	r0, r10
    1a16:	04 c0       	rjmp	.+8      	; 0x1a20 <_fpadd_parts+0xce>
    1a18:	96 94       	lsr	r9
    1a1a:	87 94       	ror	r8
    1a1c:	77 94       	ror	r7
    1a1e:	67 94       	ror	r6
    1a20:	0a 94       	dec	r0
    1a22:	d2 f7       	brpl	.-12     	; 0x1a18 <_fpadd_parts+0xc6>
    1a24:	81 e0       	ldi	r24, 0x01	; 1
    1a26:	90 e0       	ldi	r25, 0x00	; 0
    1a28:	a0 e0       	ldi	r26, 0x00	; 0
    1a2a:	b0 e0       	ldi	r27, 0x00	; 0
    1a2c:	0a 2c       	mov	r0, r10
    1a2e:	04 c0       	rjmp	.+8      	; 0x1a38 <_fpadd_parts+0xe6>
    1a30:	88 0f       	add	r24, r24
    1a32:	99 1f       	adc	r25, r25
    1a34:	aa 1f       	adc	r26, r26
    1a36:	bb 1f       	adc	r27, r27
    1a38:	0a 94       	dec	r0
    1a3a:	d2 f7       	brpl	.-12     	; 0x1a30 <_fpadd_parts+0xde>
    1a3c:	01 97       	sbiw	r24, 0x01	; 1
    1a3e:	a1 09       	sbc	r26, r1
    1a40:	b1 09       	sbc	r27, r1
    1a42:	8e 21       	and	r24, r14
    1a44:	9f 21       	and	r25, r15
    1a46:	a0 23       	and	r26, r16
    1a48:	b1 23       	and	r27, r17
    1a4a:	ee 24       	eor	r14, r14
    1a4c:	ff 24       	eor	r15, r15
    1a4e:	87 01       	movw	r16, r14
    1a50:	e3 94       	inc	r14
    1a52:	00 97       	sbiw	r24, 0x00	; 0
    1a54:	a1 05       	cpc	r26, r1
    1a56:	b1 05       	cpc	r27, r1
    1a58:	19 f4       	brne	.+6      	; 0x1a60 <_fpadd_parts+0x10e>
    1a5a:	ee 24       	eor	r14, r14
    1a5c:	ff 24       	eor	r15, r15
    1a5e:	87 01       	movw	r16, r14
    1a60:	e6 28       	or	r14, r6
    1a62:	f7 28       	or	r15, r7
    1a64:	08 29       	or	r16, r8
    1a66:	19 29       	or	r17, r9
    1a68:	3c c0       	rjmp	.+120    	; 0x1ae2 <_fpadd_parts+0x190>
    1a6a:	00 97       	sbiw	r24, 0x00	; 0
    1a6c:	d1 f1       	breq	.+116    	; 0x1ae2 <_fpadd_parts+0x190>
    1a6e:	ca 0c       	add	r12, r10
    1a70:	db 1c       	adc	r13, r11
    1a72:	39 01       	movw	r6, r18
    1a74:	4a 01       	movw	r8, r20
    1a76:	0a 2c       	mov	r0, r10
    1a78:	04 c0       	rjmp	.+8      	; 0x1a82 <_fpadd_parts+0x130>
    1a7a:	96 94       	lsr	r9
    1a7c:	87 94       	ror	r8
    1a7e:	77 94       	ror	r7
    1a80:	67 94       	ror	r6
    1a82:	0a 94       	dec	r0
    1a84:	d2 f7       	brpl	.-12     	; 0x1a7a <_fpadd_parts+0x128>
    1a86:	81 e0       	ldi	r24, 0x01	; 1
    1a88:	90 e0       	ldi	r25, 0x00	; 0
    1a8a:	a0 e0       	ldi	r26, 0x00	; 0
    1a8c:	b0 e0       	ldi	r27, 0x00	; 0
    1a8e:	0a 2c       	mov	r0, r10
    1a90:	04 c0       	rjmp	.+8      	; 0x1a9a <_fpadd_parts+0x148>
    1a92:	88 0f       	add	r24, r24
    1a94:	99 1f       	adc	r25, r25
    1a96:	aa 1f       	adc	r26, r26
    1a98:	bb 1f       	adc	r27, r27
    1a9a:	0a 94       	dec	r0
    1a9c:	d2 f7       	brpl	.-12     	; 0x1a92 <_fpadd_parts+0x140>
    1a9e:	01 97       	sbiw	r24, 0x01	; 1
    1aa0:	a1 09       	sbc	r26, r1
    1aa2:	b1 09       	sbc	r27, r1
    1aa4:	82 23       	and	r24, r18
    1aa6:	93 23       	and	r25, r19
    1aa8:	a4 23       	and	r26, r20
    1aaa:	b5 23       	and	r27, r21
    1aac:	21 e0       	ldi	r18, 0x01	; 1
    1aae:	30 e0       	ldi	r19, 0x00	; 0
    1ab0:	40 e0       	ldi	r20, 0x00	; 0
    1ab2:	50 e0       	ldi	r21, 0x00	; 0
    1ab4:	00 97       	sbiw	r24, 0x00	; 0
    1ab6:	a1 05       	cpc	r26, r1
    1ab8:	b1 05       	cpc	r27, r1
    1aba:	19 f4       	brne	.+6      	; 0x1ac2 <_fpadd_parts+0x170>
    1abc:	20 e0       	ldi	r18, 0x00	; 0
    1abe:	30 e0       	ldi	r19, 0x00	; 0
    1ac0:	a9 01       	movw	r20, r18
    1ac2:	26 29       	or	r18, r6
    1ac4:	37 29       	or	r19, r7
    1ac6:	48 29       	or	r20, r8
    1ac8:	59 29       	or	r21, r9
    1aca:	0b c0       	rjmp	.+22     	; 0x1ae2 <_fpadd_parts+0x190>
    1acc:	6c 14       	cp	r6, r12
    1ace:	7d 04       	cpc	r7, r13
    1ad0:	24 f4       	brge	.+8      	; 0x1ada <_fpadd_parts+0x188>
    1ad2:	ee 24       	eor	r14, r14
    1ad4:	ff 24       	eor	r15, r15
    1ad6:	87 01       	movw	r16, r14
    1ad8:	04 c0       	rjmp	.+8      	; 0x1ae2 <_fpadd_parts+0x190>
    1ada:	63 01       	movw	r12, r6
    1adc:	20 e0       	ldi	r18, 0x00	; 0
    1ade:	30 e0       	ldi	r19, 0x00	; 0
    1ae0:	a9 01       	movw	r20, r18
    1ae2:	81 81       	ldd	r24, Z+1	; 0x01
    1ae4:	fb 01       	movw	r30, r22
    1ae6:	91 81       	ldd	r25, Z+1	; 0x01
    1ae8:	89 17       	cp	r24, r25
    1aea:	09 f4       	brne	.+2      	; 0x1aee <_fpadd_parts+0x19c>
    1aec:	45 c0       	rjmp	.+138    	; 0x1b78 <_fpadd_parts+0x226>
    1aee:	88 23       	and	r24, r24
    1af0:	49 f0       	breq	.+18     	; 0x1b04 <_fpadd_parts+0x1b2>
    1af2:	d8 01       	movw	r26, r16
    1af4:	c7 01       	movw	r24, r14
    1af6:	82 1b       	sub	r24, r18
    1af8:	93 0b       	sbc	r25, r19
    1afa:	a4 0b       	sbc	r26, r20
    1afc:	b5 0b       	sbc	r27, r21
    1afe:	9c 01       	movw	r18, r24
    1b00:	ad 01       	movw	r20, r26
    1b02:	04 c0       	rjmp	.+8      	; 0x1b0c <_fpadd_parts+0x1ba>
    1b04:	2e 19       	sub	r18, r14
    1b06:	3f 09       	sbc	r19, r15
    1b08:	40 0b       	sbc	r20, r16
    1b0a:	51 0b       	sbc	r21, r17
    1b0c:	57 fd       	sbrc	r21, 7
    1b0e:	04 c0       	rjmp	.+8      	; 0x1b18 <_fpadd_parts+0x1c6>
    1b10:	19 82       	std	Y+1, r1	; 0x01
    1b12:	db 82       	std	Y+3, r13	; 0x03
    1b14:	ca 82       	std	Y+2, r12	; 0x02
    1b16:	0b c0       	rjmp	.+22     	; 0x1b2e <_fpadd_parts+0x1dc>
    1b18:	81 e0       	ldi	r24, 0x01	; 1
    1b1a:	89 83       	std	Y+1, r24	; 0x01
    1b1c:	db 82       	std	Y+3, r13	; 0x03
    1b1e:	ca 82       	std	Y+2, r12	; 0x02
    1b20:	50 95       	com	r21
    1b22:	40 95       	com	r20
    1b24:	30 95       	com	r19
    1b26:	21 95       	neg	r18
    1b28:	3f 4f       	sbci	r19, 0xFF	; 255
    1b2a:	4f 4f       	sbci	r20, 0xFF	; 255
    1b2c:	5f 4f       	sbci	r21, 0xFF	; 255
    1b2e:	2c 83       	std	Y+4, r18	; 0x04
    1b30:	3d 83       	std	Y+5, r19	; 0x05
    1b32:	4e 83       	std	Y+6, r20	; 0x06
    1b34:	5f 83       	std	Y+7, r21	; 0x07
    1b36:	0d c0       	rjmp	.+26     	; 0x1b52 <_fpadd_parts+0x200>
    1b38:	88 0f       	add	r24, r24
    1b3a:	99 1f       	adc	r25, r25
    1b3c:	aa 1f       	adc	r26, r26
    1b3e:	bb 1f       	adc	r27, r27
    1b40:	8c 83       	std	Y+4, r24	; 0x04
    1b42:	9d 83       	std	Y+5, r25	; 0x05
    1b44:	ae 83       	std	Y+6, r26	; 0x06
    1b46:	bf 83       	std	Y+7, r27	; 0x07
    1b48:	8a 81       	ldd	r24, Y+2	; 0x02
    1b4a:	9b 81       	ldd	r25, Y+3	; 0x03
    1b4c:	01 97       	sbiw	r24, 0x01	; 1
    1b4e:	9b 83       	std	Y+3, r25	; 0x03
    1b50:	8a 83       	std	Y+2, r24	; 0x02
    1b52:	8c 81       	ldd	r24, Y+4	; 0x04
    1b54:	9d 81       	ldd	r25, Y+5	; 0x05
    1b56:	ae 81       	ldd	r26, Y+6	; 0x06
    1b58:	bf 81       	ldd	r27, Y+7	; 0x07
    1b5a:	9c 01       	movw	r18, r24
    1b5c:	ad 01       	movw	r20, r26
    1b5e:	21 50       	subi	r18, 0x01	; 1
    1b60:	30 40       	sbci	r19, 0x00	; 0
    1b62:	40 40       	sbci	r20, 0x00	; 0
    1b64:	50 40       	sbci	r21, 0x00	; 0
    1b66:	2f 3f       	cpi	r18, 0xFF	; 255
    1b68:	ef ef       	ldi	r30, 0xFF	; 255
    1b6a:	3e 07       	cpc	r19, r30
    1b6c:	ef ef       	ldi	r30, 0xFF	; 255
    1b6e:	4e 07       	cpc	r20, r30
    1b70:	ef e3       	ldi	r30, 0x3F	; 63
    1b72:	5e 07       	cpc	r21, r30
    1b74:	08 f3       	brcs	.-62     	; 0x1b38 <_fpadd_parts+0x1e6>
    1b76:	0b c0       	rjmp	.+22     	; 0x1b8e <_fpadd_parts+0x23c>
    1b78:	89 83       	std	Y+1, r24	; 0x01
    1b7a:	db 82       	std	Y+3, r13	; 0x03
    1b7c:	ca 82       	std	Y+2, r12	; 0x02
    1b7e:	2e 0d       	add	r18, r14
    1b80:	3f 1d       	adc	r19, r15
    1b82:	40 1f       	adc	r20, r16
    1b84:	51 1f       	adc	r21, r17
    1b86:	2c 83       	std	Y+4, r18	; 0x04
    1b88:	3d 83       	std	Y+5, r19	; 0x05
    1b8a:	4e 83       	std	Y+6, r20	; 0x06
    1b8c:	5f 83       	std	Y+7, r21	; 0x07
    1b8e:	83 e0       	ldi	r24, 0x03	; 3
    1b90:	88 83       	st	Y, r24
    1b92:	2c 81       	ldd	r18, Y+4	; 0x04
    1b94:	3d 81       	ldd	r19, Y+5	; 0x05
    1b96:	4e 81       	ldd	r20, Y+6	; 0x06
    1b98:	5f 81       	ldd	r21, Y+7	; 0x07
    1b9a:	57 ff       	sbrs	r21, 7
    1b9c:	1d c0       	rjmp	.+58     	; 0x1bd8 <_fpadd_parts+0x286>
    1b9e:	da 01       	movw	r26, r20
    1ba0:	c9 01       	movw	r24, r18
    1ba2:	81 70       	andi	r24, 0x01	; 1
    1ba4:	90 70       	andi	r25, 0x00	; 0
    1ba6:	a0 70       	andi	r26, 0x00	; 0
    1ba8:	b0 70       	andi	r27, 0x00	; 0
    1baa:	56 95       	lsr	r21
    1bac:	47 95       	ror	r20
    1bae:	37 95       	ror	r19
    1bb0:	27 95       	ror	r18
    1bb2:	82 2b       	or	r24, r18
    1bb4:	93 2b       	or	r25, r19
    1bb6:	a4 2b       	or	r26, r20
    1bb8:	b5 2b       	or	r27, r21
    1bba:	8c 83       	std	Y+4, r24	; 0x04
    1bbc:	9d 83       	std	Y+5, r25	; 0x05
    1bbe:	ae 83       	std	Y+6, r26	; 0x06
    1bc0:	bf 83       	std	Y+7, r27	; 0x07
    1bc2:	8a 81       	ldd	r24, Y+2	; 0x02
    1bc4:	9b 81       	ldd	r25, Y+3	; 0x03
    1bc6:	01 96       	adiw	r24, 0x01	; 1
    1bc8:	9b 83       	std	Y+3, r25	; 0x03
    1bca:	8a 83       	std	Y+2, r24	; 0x02
    1bcc:	05 c0       	rjmp	.+10     	; 0x1bd8 <_fpadd_parts+0x286>
    1bce:	e4 e0       	ldi	r30, 0x04	; 4
    1bd0:	f1 e0       	ldi	r31, 0x01	; 1
    1bd2:	03 c0       	rjmp	.+6      	; 0x1bda <_fpadd_parts+0x288>
    1bd4:	fb 01       	movw	r30, r22
    1bd6:	01 c0       	rjmp	.+2      	; 0x1bda <_fpadd_parts+0x288>
    1bd8:	fe 01       	movw	r30, r28
    1bda:	cf 01       	movw	r24, r30
    1bdc:	cd b7       	in	r28, 0x3d	; 61
    1bde:	de b7       	in	r29, 0x3e	; 62
    1be0:	ee e0       	ldi	r30, 0x0E	; 14
    1be2:	0c 94 97 12 	jmp	0x252e	; 0x252e <__epilogue_restores__+0x8>

00001be6 <__addsf3>:
    1be6:	a0 e2       	ldi	r26, 0x20	; 32
    1be8:	b0 e0       	ldi	r27, 0x00	; 0
    1bea:	e9 ef       	ldi	r30, 0xF9	; 249
    1bec:	fd e0       	ldi	r31, 0x0D	; 13
    1bee:	0c 94 83 12 	jmp	0x2506	; 0x2506 <__prologue_saves__+0x18>
    1bf2:	69 83       	std	Y+1, r22	; 0x01
    1bf4:	7a 83       	std	Y+2, r23	; 0x02
    1bf6:	8b 83       	std	Y+3, r24	; 0x03
    1bf8:	9c 83       	std	Y+4, r25	; 0x04
    1bfa:	2d 83       	std	Y+5, r18	; 0x05
    1bfc:	3e 83       	std	Y+6, r19	; 0x06
    1bfe:	4f 83       	std	Y+7, r20	; 0x07
    1c00:	58 87       	std	Y+8, r21	; 0x08
    1c02:	89 e0       	ldi	r24, 0x09	; 9
    1c04:	e8 2e       	mov	r14, r24
    1c06:	f1 2c       	mov	r15, r1
    1c08:	ec 0e       	add	r14, r28
    1c0a:	fd 1e       	adc	r15, r29
    1c0c:	ce 01       	movw	r24, r28
    1c0e:	01 96       	adiw	r24, 0x01	; 1
    1c10:	b7 01       	movw	r22, r14
    1c12:	0e 94 a9 11 	call	0x2352	; 0x2352 <__unpack_f>
    1c16:	8e 01       	movw	r16, r28
    1c18:	0f 5e       	subi	r16, 0xEF	; 239
    1c1a:	1f 4f       	sbci	r17, 0xFF	; 255
    1c1c:	ce 01       	movw	r24, r28
    1c1e:	05 96       	adiw	r24, 0x05	; 5
    1c20:	b8 01       	movw	r22, r16
    1c22:	0e 94 a9 11 	call	0x2352	; 0x2352 <__unpack_f>
    1c26:	c7 01       	movw	r24, r14
    1c28:	b8 01       	movw	r22, r16
    1c2a:	ae 01       	movw	r20, r28
    1c2c:	47 5e       	subi	r20, 0xE7	; 231
    1c2e:	5f 4f       	sbci	r21, 0xFF	; 255
    1c30:	0e 94 a9 0c 	call	0x1952	; 0x1952 <_fpadd_parts>
    1c34:	0e 94 db 10 	call	0x21b6	; 0x21b6 <__pack_f>
    1c38:	a0 96       	adiw	r28, 0x20	; 32
    1c3a:	e6 e0       	ldi	r30, 0x06	; 6
    1c3c:	0c 94 9f 12 	jmp	0x253e	; 0x253e <__epilogue_restores__+0x18>

00001c40 <__subsf3>:
    1c40:	a0 e2       	ldi	r26, 0x20	; 32
    1c42:	b0 e0       	ldi	r27, 0x00	; 0
    1c44:	e6 e2       	ldi	r30, 0x26	; 38
    1c46:	fe e0       	ldi	r31, 0x0E	; 14
    1c48:	0c 94 83 12 	jmp	0x2506	; 0x2506 <__prologue_saves__+0x18>
    1c4c:	69 83       	std	Y+1, r22	; 0x01
    1c4e:	7a 83       	std	Y+2, r23	; 0x02
    1c50:	8b 83       	std	Y+3, r24	; 0x03
    1c52:	9c 83       	std	Y+4, r25	; 0x04
    1c54:	2d 83       	std	Y+5, r18	; 0x05
    1c56:	3e 83       	std	Y+6, r19	; 0x06
    1c58:	4f 83       	std	Y+7, r20	; 0x07
    1c5a:	58 87       	std	Y+8, r21	; 0x08
    1c5c:	8e 01       	movw	r16, r28
    1c5e:	07 5f       	subi	r16, 0xF7	; 247
    1c60:	1f 4f       	sbci	r17, 0xFF	; 255
    1c62:	ce 01       	movw	r24, r28
    1c64:	01 96       	adiw	r24, 0x01	; 1
    1c66:	b8 01       	movw	r22, r16
    1c68:	0e 94 a9 11 	call	0x2352	; 0x2352 <__unpack_f>
    1c6c:	91 e1       	ldi	r25, 0x11	; 17
    1c6e:	e9 2e       	mov	r14, r25
    1c70:	f1 2c       	mov	r15, r1
    1c72:	ec 0e       	add	r14, r28
    1c74:	fd 1e       	adc	r15, r29
    1c76:	ce 01       	movw	r24, r28
    1c78:	05 96       	adiw	r24, 0x05	; 5
    1c7a:	b7 01       	movw	r22, r14
    1c7c:	0e 94 a9 11 	call	0x2352	; 0x2352 <__unpack_f>
    1c80:	8a 89       	ldd	r24, Y+18	; 0x12
    1c82:	91 e0       	ldi	r25, 0x01	; 1
    1c84:	89 27       	eor	r24, r25
    1c86:	8a 8b       	std	Y+18, r24	; 0x12
    1c88:	c8 01       	movw	r24, r16
    1c8a:	b7 01       	movw	r22, r14
    1c8c:	ae 01       	movw	r20, r28
    1c8e:	47 5e       	subi	r20, 0xE7	; 231
    1c90:	5f 4f       	sbci	r21, 0xFF	; 255
    1c92:	0e 94 a9 0c 	call	0x1952	; 0x1952 <_fpadd_parts>
    1c96:	0e 94 db 10 	call	0x21b6	; 0x21b6 <__pack_f>
    1c9a:	a0 96       	adiw	r28, 0x20	; 32
    1c9c:	e6 e0       	ldi	r30, 0x06	; 6
    1c9e:	0c 94 9f 12 	jmp	0x253e	; 0x253e <__epilogue_restores__+0x18>

00001ca2 <__mulsf3>:
    1ca2:	a0 e2       	ldi	r26, 0x20	; 32
    1ca4:	b0 e0       	ldi	r27, 0x00	; 0
    1ca6:	e7 e5       	ldi	r30, 0x57	; 87
    1ca8:	fe e0       	ldi	r31, 0x0E	; 14
    1caa:	0c 94 77 12 	jmp	0x24ee	; 0x24ee <__prologue_saves__>
    1cae:	69 83       	std	Y+1, r22	; 0x01
    1cb0:	7a 83       	std	Y+2, r23	; 0x02
    1cb2:	8b 83       	std	Y+3, r24	; 0x03
    1cb4:	9c 83       	std	Y+4, r25	; 0x04
    1cb6:	2d 83       	std	Y+5, r18	; 0x05
    1cb8:	3e 83       	std	Y+6, r19	; 0x06
    1cba:	4f 83       	std	Y+7, r20	; 0x07
    1cbc:	58 87       	std	Y+8, r21	; 0x08
    1cbe:	ce 01       	movw	r24, r28
    1cc0:	01 96       	adiw	r24, 0x01	; 1
    1cc2:	be 01       	movw	r22, r28
    1cc4:	67 5f       	subi	r22, 0xF7	; 247
    1cc6:	7f 4f       	sbci	r23, 0xFF	; 255
    1cc8:	0e 94 a9 11 	call	0x2352	; 0x2352 <__unpack_f>
    1ccc:	ce 01       	movw	r24, r28
    1cce:	05 96       	adiw	r24, 0x05	; 5
    1cd0:	be 01       	movw	r22, r28
    1cd2:	6f 5e       	subi	r22, 0xEF	; 239
    1cd4:	7f 4f       	sbci	r23, 0xFF	; 255
    1cd6:	0e 94 a9 11 	call	0x2352	; 0x2352 <__unpack_f>
    1cda:	99 85       	ldd	r25, Y+9	; 0x09
    1cdc:	92 30       	cpi	r25, 0x02	; 2
    1cde:	78 f0       	brcs	.+30     	; 0x1cfe <__mulsf3+0x5c>
    1ce0:	89 89       	ldd	r24, Y+17	; 0x11
    1ce2:	82 30       	cpi	r24, 0x02	; 2
    1ce4:	c0 f0       	brcs	.+48     	; 0x1d16 <__mulsf3+0x74>
    1ce6:	94 30       	cpi	r25, 0x04	; 4
    1ce8:	19 f4       	brne	.+6      	; 0x1cf0 <__mulsf3+0x4e>
    1cea:	82 30       	cpi	r24, 0x02	; 2
    1cec:	41 f4       	brne	.+16     	; 0x1cfe <__mulsf3+0x5c>
    1cee:	cb c0       	rjmp	.+406    	; 0x1e86 <__mulsf3+0x1e4>
    1cf0:	84 30       	cpi	r24, 0x04	; 4
    1cf2:	19 f4       	brne	.+6      	; 0x1cfa <__mulsf3+0x58>
    1cf4:	92 30       	cpi	r25, 0x02	; 2
    1cf6:	79 f4       	brne	.+30     	; 0x1d16 <__mulsf3+0x74>
    1cf8:	c6 c0       	rjmp	.+396    	; 0x1e86 <__mulsf3+0x1e4>
    1cfa:	92 30       	cpi	r25, 0x02	; 2
    1cfc:	51 f4       	brne	.+20     	; 0x1d12 <__mulsf3+0x70>
    1cfe:	81 e0       	ldi	r24, 0x01	; 1
    1d00:	2a 85       	ldd	r18, Y+10	; 0x0a
    1d02:	9a 89       	ldd	r25, Y+18	; 0x12
    1d04:	29 17       	cp	r18, r25
    1d06:	09 f4       	brne	.+2      	; 0x1d0a <__mulsf3+0x68>
    1d08:	80 e0       	ldi	r24, 0x00	; 0
    1d0a:	8a 87       	std	Y+10, r24	; 0x0a
    1d0c:	ce 01       	movw	r24, r28
    1d0e:	09 96       	adiw	r24, 0x09	; 9
    1d10:	bc c0       	rjmp	.+376    	; 0x1e8a <__mulsf3+0x1e8>
    1d12:	82 30       	cpi	r24, 0x02	; 2
    1d14:	51 f4       	brne	.+20     	; 0x1d2a <__mulsf3+0x88>
    1d16:	81 e0       	ldi	r24, 0x01	; 1
    1d18:	2a 85       	ldd	r18, Y+10	; 0x0a
    1d1a:	9a 89       	ldd	r25, Y+18	; 0x12
    1d1c:	29 17       	cp	r18, r25
    1d1e:	09 f4       	brne	.+2      	; 0x1d22 <__mulsf3+0x80>
    1d20:	80 e0       	ldi	r24, 0x00	; 0
    1d22:	8a 8b       	std	Y+18, r24	; 0x12
    1d24:	ce 01       	movw	r24, r28
    1d26:	41 96       	adiw	r24, 0x11	; 17
    1d28:	b0 c0       	rjmp	.+352    	; 0x1e8a <__mulsf3+0x1e8>
    1d2a:	6d 84       	ldd	r6, Y+13	; 0x0d
    1d2c:	7e 84       	ldd	r7, Y+14	; 0x0e
    1d2e:	8f 84       	ldd	r8, Y+15	; 0x0f
    1d30:	98 88       	ldd	r9, Y+16	; 0x10
    1d32:	ed 88       	ldd	r14, Y+21	; 0x15
    1d34:	fe 88       	ldd	r15, Y+22	; 0x16
    1d36:	0f 89       	ldd	r16, Y+23	; 0x17
    1d38:	18 8d       	ldd	r17, Y+24	; 0x18
    1d3a:	e0 e2       	ldi	r30, 0x20	; 32
    1d3c:	f0 e0       	ldi	r31, 0x00	; 0
    1d3e:	80 e0       	ldi	r24, 0x00	; 0
    1d40:	90 e0       	ldi	r25, 0x00	; 0
    1d42:	dc 01       	movw	r26, r24
    1d44:	aa 24       	eor	r10, r10
    1d46:	bb 24       	eor	r11, r11
    1d48:	65 01       	movw	r12, r10
    1d4a:	20 e0       	ldi	r18, 0x00	; 0
    1d4c:	30 e0       	ldi	r19, 0x00	; 0
    1d4e:	a9 01       	movw	r20, r18
    1d50:	b3 01       	movw	r22, r6
    1d52:	61 70       	andi	r22, 0x01	; 1
    1d54:	70 70       	andi	r23, 0x00	; 0
    1d56:	61 15       	cp	r22, r1
    1d58:	71 05       	cpc	r23, r1
    1d5a:	d1 f0       	breq	.+52     	; 0x1d90 <__mulsf3+0xee>
    1d5c:	2e 0d       	add	r18, r14
    1d5e:	3f 1d       	adc	r19, r15
    1d60:	40 1f       	adc	r20, r16
    1d62:	51 1f       	adc	r21, r17
    1d64:	15 01       	movw	r2, r10
    1d66:	26 01       	movw	r4, r12
    1d68:	28 0e       	add	r2, r24
    1d6a:	39 1e       	adc	r3, r25
    1d6c:	4a 1e       	adc	r4, r26
    1d6e:	5b 1e       	adc	r5, r27
    1d70:	81 e0       	ldi	r24, 0x01	; 1
    1d72:	90 e0       	ldi	r25, 0x00	; 0
    1d74:	a0 e0       	ldi	r26, 0x00	; 0
    1d76:	b0 e0       	ldi	r27, 0x00	; 0
    1d78:	2e 15       	cp	r18, r14
    1d7a:	3f 05       	cpc	r19, r15
    1d7c:	40 07       	cpc	r20, r16
    1d7e:	51 07       	cpc	r21, r17
    1d80:	18 f0       	brcs	.+6      	; 0x1d88 <__mulsf3+0xe6>
    1d82:	80 e0       	ldi	r24, 0x00	; 0
    1d84:	90 e0       	ldi	r25, 0x00	; 0
    1d86:	dc 01       	movw	r26, r24
    1d88:	82 0d       	add	r24, r2
    1d8a:	93 1d       	adc	r25, r3
    1d8c:	a4 1d       	adc	r26, r4
    1d8e:	b5 1d       	adc	r27, r5
    1d90:	aa 0c       	add	r10, r10
    1d92:	bb 1c       	adc	r11, r11
    1d94:	cc 1c       	adc	r12, r12
    1d96:	dd 1c       	adc	r13, r13
    1d98:	17 ff       	sbrs	r17, 7
    1d9a:	09 c0       	rjmp	.+18     	; 0x1dae <__mulsf3+0x10c>
    1d9c:	61 e0       	ldi	r22, 0x01	; 1
    1d9e:	26 2e       	mov	r2, r22
    1da0:	31 2c       	mov	r3, r1
    1da2:	41 2c       	mov	r4, r1
    1da4:	51 2c       	mov	r5, r1
    1da6:	a2 28       	or	r10, r2
    1da8:	b3 28       	or	r11, r3
    1daa:	c4 28       	or	r12, r4
    1dac:	d5 28       	or	r13, r5
    1dae:	31 97       	sbiw	r30, 0x01	; 1
    1db0:	49 f0       	breq	.+18     	; 0x1dc4 <__mulsf3+0x122>
    1db2:	ee 0c       	add	r14, r14
    1db4:	ff 1c       	adc	r15, r15
    1db6:	00 1f       	adc	r16, r16
    1db8:	11 1f       	adc	r17, r17
    1dba:	96 94       	lsr	r9
    1dbc:	87 94       	ror	r8
    1dbe:	77 94       	ror	r7
    1dc0:	67 94       	ror	r6
    1dc2:	c6 cf       	rjmp	.-116    	; 0x1d50 <__mulsf3+0xae>
    1dc4:	6b 89       	ldd	r22, Y+19	; 0x13
    1dc6:	7c 89       	ldd	r23, Y+20	; 0x14
    1dc8:	eb 85       	ldd	r30, Y+11	; 0x0b
    1dca:	fc 85       	ldd	r31, Y+12	; 0x0c
    1dcc:	6e 0f       	add	r22, r30
    1dce:	7f 1f       	adc	r23, r31
    1dd0:	6e 5f       	subi	r22, 0xFE	; 254
    1dd2:	7f 4f       	sbci	r23, 0xFF	; 255
    1dd4:	7c 8f       	std	Y+28, r23	; 0x1c
    1dd6:	6b 8f       	std	Y+27, r22	; 0x1b
    1dd8:	61 e0       	ldi	r22, 0x01	; 1
    1dda:	ea 85       	ldd	r30, Y+10	; 0x0a
    1ddc:	7a 89       	ldd	r23, Y+18	; 0x12
    1dde:	e7 17       	cp	r30, r23
    1de0:	09 f4       	brne	.+2      	; 0x1de4 <__mulsf3+0x142>
    1de2:	60 e0       	ldi	r22, 0x00	; 0
    1de4:	6a 8f       	std	Y+26, r22	; 0x1a
    1de6:	6b 8d       	ldd	r22, Y+27	; 0x1b
    1de8:	7c 8d       	ldd	r23, Y+28	; 0x1c
    1dea:	10 c0       	rjmp	.+32     	; 0x1e0c <__mulsf3+0x16a>
    1dec:	fc 01       	movw	r30, r24
    1dee:	e1 70       	andi	r30, 0x01	; 1
    1df0:	f0 70       	andi	r31, 0x00	; 0
    1df2:	30 97       	sbiw	r30, 0x00	; 0
    1df4:	29 f0       	breq	.+10     	; 0x1e00 <__mulsf3+0x15e>
    1df6:	56 95       	lsr	r21
    1df8:	47 95       	ror	r20
    1dfa:	37 95       	ror	r19
    1dfc:	27 95       	ror	r18
    1dfe:	50 68       	ori	r21, 0x80	; 128
    1e00:	b6 95       	lsr	r27
    1e02:	a7 95       	ror	r26
    1e04:	97 95       	ror	r25
    1e06:	87 95       	ror	r24
    1e08:	6f 5f       	subi	r22, 0xFF	; 255
    1e0a:	7f 4f       	sbci	r23, 0xFF	; 255
    1e0c:	b7 fd       	sbrc	r27, 7
    1e0e:	ee cf       	rjmp	.-36     	; 0x1dec <__mulsf3+0x14a>
    1e10:	0c c0       	rjmp	.+24     	; 0x1e2a <__mulsf3+0x188>
    1e12:	88 0f       	add	r24, r24
    1e14:	99 1f       	adc	r25, r25
    1e16:	aa 1f       	adc	r26, r26
    1e18:	bb 1f       	adc	r27, r27
    1e1a:	57 fd       	sbrc	r21, 7
    1e1c:	81 60       	ori	r24, 0x01	; 1
    1e1e:	22 0f       	add	r18, r18
    1e20:	33 1f       	adc	r19, r19
    1e22:	44 1f       	adc	r20, r20
    1e24:	55 1f       	adc	r21, r21
    1e26:	61 50       	subi	r22, 0x01	; 1
    1e28:	70 40       	sbci	r23, 0x00	; 0
    1e2a:	80 30       	cpi	r24, 0x00	; 0
    1e2c:	e0 e0       	ldi	r30, 0x00	; 0
    1e2e:	9e 07       	cpc	r25, r30
    1e30:	e0 e0       	ldi	r30, 0x00	; 0
    1e32:	ae 07       	cpc	r26, r30
    1e34:	e0 e4       	ldi	r30, 0x40	; 64
    1e36:	be 07       	cpc	r27, r30
    1e38:	60 f3       	brcs	.-40     	; 0x1e12 <__mulsf3+0x170>
    1e3a:	6b 8f       	std	Y+27, r22	; 0x1b
    1e3c:	7c 8f       	std	Y+28, r23	; 0x1c
    1e3e:	6f e7       	ldi	r22, 0x7F	; 127
    1e40:	e6 2e       	mov	r14, r22
    1e42:	f1 2c       	mov	r15, r1
    1e44:	01 2d       	mov	r16, r1
    1e46:	11 2d       	mov	r17, r1
    1e48:	e8 22       	and	r14, r24
    1e4a:	f9 22       	and	r15, r25
    1e4c:	0a 23       	and	r16, r26
    1e4e:	1b 23       	and	r17, r27
    1e50:	60 e4       	ldi	r22, 0x40	; 64
    1e52:	e6 16       	cp	r14, r22
    1e54:	f1 04       	cpc	r15, r1
    1e56:	01 05       	cpc	r16, r1
    1e58:	11 05       	cpc	r17, r1
    1e5a:	61 f4       	brne	.+24     	; 0x1e74 <__mulsf3+0x1d2>
    1e5c:	87 fd       	sbrc	r24, 7
    1e5e:	0a c0       	rjmp	.+20     	; 0x1e74 <__mulsf3+0x1d2>
    1e60:	21 15       	cp	r18, r1
    1e62:	31 05       	cpc	r19, r1
    1e64:	41 05       	cpc	r20, r1
    1e66:	51 05       	cpc	r21, r1
    1e68:	29 f0       	breq	.+10     	; 0x1e74 <__mulsf3+0x1d2>
    1e6a:	80 5c       	subi	r24, 0xC0	; 192
    1e6c:	9f 4f       	sbci	r25, 0xFF	; 255
    1e6e:	af 4f       	sbci	r26, 0xFF	; 255
    1e70:	bf 4f       	sbci	r27, 0xFF	; 255
    1e72:	80 78       	andi	r24, 0x80	; 128
    1e74:	8d 8f       	std	Y+29, r24	; 0x1d
    1e76:	9e 8f       	std	Y+30, r25	; 0x1e
    1e78:	af 8f       	std	Y+31, r26	; 0x1f
    1e7a:	b8 a3       	std	Y+32, r27	; 0x20
    1e7c:	83 e0       	ldi	r24, 0x03	; 3
    1e7e:	89 8f       	std	Y+25, r24	; 0x19
    1e80:	ce 01       	movw	r24, r28
    1e82:	49 96       	adiw	r24, 0x19	; 25
    1e84:	02 c0       	rjmp	.+4      	; 0x1e8a <__mulsf3+0x1e8>
    1e86:	84 e0       	ldi	r24, 0x04	; 4
    1e88:	91 e0       	ldi	r25, 0x01	; 1
    1e8a:	0e 94 db 10 	call	0x21b6	; 0x21b6 <__pack_f>
    1e8e:	a0 96       	adiw	r28, 0x20	; 32
    1e90:	e2 e1       	ldi	r30, 0x12	; 18
    1e92:	0c 94 93 12 	jmp	0x2526	; 0x2526 <__epilogue_restores__>

00001e96 <__divsf3>:
    1e96:	a8 e1       	ldi	r26, 0x18	; 24
    1e98:	b0 e0       	ldi	r27, 0x00	; 0
    1e9a:	e1 e5       	ldi	r30, 0x51	; 81
    1e9c:	ff e0       	ldi	r31, 0x0F	; 15
    1e9e:	0c 94 7f 12 	jmp	0x24fe	; 0x24fe <__prologue_saves__+0x10>
    1ea2:	69 83       	std	Y+1, r22	; 0x01
    1ea4:	7a 83       	std	Y+2, r23	; 0x02
    1ea6:	8b 83       	std	Y+3, r24	; 0x03
    1ea8:	9c 83       	std	Y+4, r25	; 0x04
    1eaa:	2d 83       	std	Y+5, r18	; 0x05
    1eac:	3e 83       	std	Y+6, r19	; 0x06
    1eae:	4f 83       	std	Y+7, r20	; 0x07
    1eb0:	58 87       	std	Y+8, r21	; 0x08
    1eb2:	8e 01       	movw	r16, r28
    1eb4:	07 5f       	subi	r16, 0xF7	; 247
    1eb6:	1f 4f       	sbci	r17, 0xFF	; 255
    1eb8:	ce 01       	movw	r24, r28
    1eba:	01 96       	adiw	r24, 0x01	; 1
    1ebc:	b8 01       	movw	r22, r16
    1ebe:	0e 94 a9 11 	call	0x2352	; 0x2352 <__unpack_f>
    1ec2:	81 e1       	ldi	r24, 0x11	; 17
    1ec4:	e8 2e       	mov	r14, r24
    1ec6:	f1 2c       	mov	r15, r1
    1ec8:	ec 0e       	add	r14, r28
    1eca:	fd 1e       	adc	r15, r29
    1ecc:	ce 01       	movw	r24, r28
    1ece:	05 96       	adiw	r24, 0x05	; 5
    1ed0:	b7 01       	movw	r22, r14
    1ed2:	0e 94 a9 11 	call	0x2352	; 0x2352 <__unpack_f>
    1ed6:	99 85       	ldd	r25, Y+9	; 0x09
    1ed8:	92 30       	cpi	r25, 0x02	; 2
    1eda:	08 f4       	brcc	.+2      	; 0x1ede <__divsf3+0x48>
    1edc:	83 c0       	rjmp	.+262    	; 0x1fe4 <__divsf3+0x14e>
    1ede:	89 89       	ldd	r24, Y+17	; 0x11
    1ee0:	82 30       	cpi	r24, 0x02	; 2
    1ee2:	08 f4       	brcc	.+2      	; 0x1ee6 <__divsf3+0x50>
    1ee4:	7b c0       	rjmp	.+246    	; 0x1fdc <__divsf3+0x146>
    1ee6:	2a 85       	ldd	r18, Y+10	; 0x0a
    1ee8:	3a 89       	ldd	r19, Y+18	; 0x12
    1eea:	23 27       	eor	r18, r19
    1eec:	2a 87       	std	Y+10, r18	; 0x0a
    1eee:	94 30       	cpi	r25, 0x04	; 4
    1ef0:	11 f0       	breq	.+4      	; 0x1ef6 <__divsf3+0x60>
    1ef2:	92 30       	cpi	r25, 0x02	; 2
    1ef4:	21 f4       	brne	.+8      	; 0x1efe <__divsf3+0x68>
    1ef6:	98 17       	cp	r25, r24
    1ef8:	09 f0       	breq	.+2      	; 0x1efc <__divsf3+0x66>
    1efa:	6c c0       	rjmp	.+216    	; 0x1fd4 <__divsf3+0x13e>
    1efc:	71 c0       	rjmp	.+226    	; 0x1fe0 <__divsf3+0x14a>
    1efe:	84 30       	cpi	r24, 0x04	; 4
    1f00:	39 f4       	brne	.+14     	; 0x1f10 <__divsf3+0x7a>
    1f02:	1d 86       	std	Y+13, r1	; 0x0d
    1f04:	1e 86       	std	Y+14, r1	; 0x0e
    1f06:	1f 86       	std	Y+15, r1	; 0x0f
    1f08:	18 8a       	std	Y+16, r1	; 0x10
    1f0a:	1c 86       	std	Y+12, r1	; 0x0c
    1f0c:	1b 86       	std	Y+11, r1	; 0x0b
    1f0e:	6a c0       	rjmp	.+212    	; 0x1fe4 <__divsf3+0x14e>
    1f10:	82 30       	cpi	r24, 0x02	; 2
    1f12:	19 f4       	brne	.+6      	; 0x1f1a <__divsf3+0x84>
    1f14:	84 e0       	ldi	r24, 0x04	; 4
    1f16:	89 87       	std	Y+9, r24	; 0x09
    1f18:	65 c0       	rjmp	.+202    	; 0x1fe4 <__divsf3+0x14e>
    1f1a:	8b 85       	ldd	r24, Y+11	; 0x0b
    1f1c:	9c 85       	ldd	r25, Y+12	; 0x0c
    1f1e:	2b 89       	ldd	r18, Y+19	; 0x13
    1f20:	3c 89       	ldd	r19, Y+20	; 0x14
    1f22:	82 1b       	sub	r24, r18
    1f24:	93 0b       	sbc	r25, r19
    1f26:	9c 87       	std	Y+12, r25	; 0x0c
    1f28:	8b 87       	std	Y+11, r24	; 0x0b
    1f2a:	2d 85       	ldd	r18, Y+13	; 0x0d
    1f2c:	3e 85       	ldd	r19, Y+14	; 0x0e
    1f2e:	4f 85       	ldd	r20, Y+15	; 0x0f
    1f30:	58 89       	ldd	r21, Y+16	; 0x10
    1f32:	ed 88       	ldd	r14, Y+21	; 0x15
    1f34:	fe 88       	ldd	r15, Y+22	; 0x16
    1f36:	0f 89       	ldd	r16, Y+23	; 0x17
    1f38:	18 8d       	ldd	r17, Y+24	; 0x18
    1f3a:	2e 15       	cp	r18, r14
    1f3c:	3f 05       	cpc	r19, r15
    1f3e:	40 07       	cpc	r20, r16
    1f40:	51 07       	cpc	r21, r17
    1f42:	38 f4       	brcc	.+14     	; 0x1f52 <__divsf3+0xbc>
    1f44:	22 0f       	add	r18, r18
    1f46:	33 1f       	adc	r19, r19
    1f48:	44 1f       	adc	r20, r20
    1f4a:	55 1f       	adc	r21, r21
    1f4c:	01 97       	sbiw	r24, 0x01	; 1
    1f4e:	9c 87       	std	Y+12, r25	; 0x0c
    1f50:	8b 87       	std	Y+11, r24	; 0x0b
    1f52:	6f e1       	ldi	r22, 0x1F	; 31
    1f54:	70 e0       	ldi	r23, 0x00	; 0
    1f56:	a1 2c       	mov	r10, r1
    1f58:	b1 2c       	mov	r11, r1
    1f5a:	c1 2c       	mov	r12, r1
    1f5c:	a0 e4       	ldi	r26, 0x40	; 64
    1f5e:	da 2e       	mov	r13, r26
    1f60:	80 e0       	ldi	r24, 0x00	; 0
    1f62:	90 e0       	ldi	r25, 0x00	; 0
    1f64:	dc 01       	movw	r26, r24
    1f66:	2e 15       	cp	r18, r14
    1f68:	3f 05       	cpc	r19, r15
    1f6a:	40 07       	cpc	r20, r16
    1f6c:	51 07       	cpc	r21, r17
    1f6e:	40 f0       	brcs	.+16     	; 0x1f80 <__divsf3+0xea>
    1f70:	8a 29       	or	r24, r10
    1f72:	9b 29       	or	r25, r11
    1f74:	ac 29       	or	r26, r12
    1f76:	bd 29       	or	r27, r13
    1f78:	2e 19       	sub	r18, r14
    1f7a:	3f 09       	sbc	r19, r15
    1f7c:	40 0b       	sbc	r20, r16
    1f7e:	51 0b       	sbc	r21, r17
    1f80:	d6 94       	lsr	r13
    1f82:	c7 94       	ror	r12
    1f84:	b7 94       	ror	r11
    1f86:	a7 94       	ror	r10
    1f88:	22 0f       	add	r18, r18
    1f8a:	33 1f       	adc	r19, r19
    1f8c:	44 1f       	adc	r20, r20
    1f8e:	55 1f       	adc	r21, r21
    1f90:	61 50       	subi	r22, 0x01	; 1
    1f92:	70 40       	sbci	r23, 0x00	; 0
    1f94:	41 f7       	brne	.-48     	; 0x1f66 <__divsf3+0xd0>
    1f96:	6f e7       	ldi	r22, 0x7F	; 127
    1f98:	e6 2e       	mov	r14, r22
    1f9a:	f1 2c       	mov	r15, r1
    1f9c:	01 2d       	mov	r16, r1
    1f9e:	11 2d       	mov	r17, r1
    1fa0:	e8 22       	and	r14, r24
    1fa2:	f9 22       	and	r15, r25
    1fa4:	0a 23       	and	r16, r26
    1fa6:	1b 23       	and	r17, r27
    1fa8:	60 e4       	ldi	r22, 0x40	; 64
    1faa:	e6 16       	cp	r14, r22
    1fac:	f1 04       	cpc	r15, r1
    1fae:	01 05       	cpc	r16, r1
    1fb0:	11 05       	cpc	r17, r1
    1fb2:	61 f4       	brne	.+24     	; 0x1fcc <__divsf3+0x136>
    1fb4:	87 fd       	sbrc	r24, 7
    1fb6:	0a c0       	rjmp	.+20     	; 0x1fcc <__divsf3+0x136>
    1fb8:	21 15       	cp	r18, r1
    1fba:	31 05       	cpc	r19, r1
    1fbc:	41 05       	cpc	r20, r1
    1fbe:	51 05       	cpc	r21, r1
    1fc0:	29 f0       	breq	.+10     	; 0x1fcc <__divsf3+0x136>
    1fc2:	80 5c       	subi	r24, 0xC0	; 192
    1fc4:	9f 4f       	sbci	r25, 0xFF	; 255
    1fc6:	af 4f       	sbci	r26, 0xFF	; 255
    1fc8:	bf 4f       	sbci	r27, 0xFF	; 255
    1fca:	80 78       	andi	r24, 0x80	; 128
    1fcc:	8d 87       	std	Y+13, r24	; 0x0d
    1fce:	9e 87       	std	Y+14, r25	; 0x0e
    1fd0:	af 87       	std	Y+15, r26	; 0x0f
    1fd2:	b8 8b       	std	Y+16, r27	; 0x10
    1fd4:	8e 01       	movw	r16, r28
    1fd6:	07 5f       	subi	r16, 0xF7	; 247
    1fd8:	1f 4f       	sbci	r17, 0xFF	; 255
    1fda:	04 c0       	rjmp	.+8      	; 0x1fe4 <__divsf3+0x14e>
    1fdc:	87 01       	movw	r16, r14
    1fde:	02 c0       	rjmp	.+4      	; 0x1fe4 <__divsf3+0x14e>
    1fe0:	04 e0       	ldi	r16, 0x04	; 4
    1fe2:	11 e0       	ldi	r17, 0x01	; 1
    1fe4:	c8 01       	movw	r24, r16
    1fe6:	0e 94 db 10 	call	0x21b6	; 0x21b6 <__pack_f>
    1fea:	68 96       	adiw	r28, 0x18	; 24
    1fec:	ea e0       	ldi	r30, 0x0A	; 10
    1fee:	0c 94 9b 12 	jmp	0x2536	; 0x2536 <__epilogue_restores__+0x10>

00001ff2 <__gtsf2>:
    1ff2:	a8 e1       	ldi	r26, 0x18	; 24
    1ff4:	b0 e0       	ldi	r27, 0x00	; 0
    1ff6:	ef ef       	ldi	r30, 0xFF	; 255
    1ff8:	ff e0       	ldi	r31, 0x0F	; 15
    1ffa:	0c 94 83 12 	jmp	0x2506	; 0x2506 <__prologue_saves__+0x18>
    1ffe:	69 83       	std	Y+1, r22	; 0x01
    2000:	7a 83       	std	Y+2, r23	; 0x02
    2002:	8b 83       	std	Y+3, r24	; 0x03
    2004:	9c 83       	std	Y+4, r25	; 0x04
    2006:	2d 83       	std	Y+5, r18	; 0x05
    2008:	3e 83       	std	Y+6, r19	; 0x06
    200a:	4f 83       	std	Y+7, r20	; 0x07
    200c:	58 87       	std	Y+8, r21	; 0x08
    200e:	8e 01       	movw	r16, r28
    2010:	07 5f       	subi	r16, 0xF7	; 247
    2012:	1f 4f       	sbci	r17, 0xFF	; 255
    2014:	ce 01       	movw	r24, r28
    2016:	01 96       	adiw	r24, 0x01	; 1
    2018:	b8 01       	movw	r22, r16
    201a:	0e 94 a9 11 	call	0x2352	; 0x2352 <__unpack_f>
    201e:	81 e1       	ldi	r24, 0x11	; 17
    2020:	e8 2e       	mov	r14, r24
    2022:	f1 2c       	mov	r15, r1
    2024:	ec 0e       	add	r14, r28
    2026:	fd 1e       	adc	r15, r29
    2028:	ce 01       	movw	r24, r28
    202a:	05 96       	adiw	r24, 0x05	; 5
    202c:	b7 01       	movw	r22, r14
    202e:	0e 94 a9 11 	call	0x2352	; 0x2352 <__unpack_f>
    2032:	89 85       	ldd	r24, Y+9	; 0x09
    2034:	82 30       	cpi	r24, 0x02	; 2
    2036:	40 f0       	brcs	.+16     	; 0x2048 <__gtsf2+0x56>
    2038:	89 89       	ldd	r24, Y+17	; 0x11
    203a:	82 30       	cpi	r24, 0x02	; 2
    203c:	28 f0       	brcs	.+10     	; 0x2048 <__gtsf2+0x56>
    203e:	c8 01       	movw	r24, r16
    2040:	b7 01       	movw	r22, r14
    2042:	0e 94 12 12 	call	0x2424	; 0x2424 <__fpcmp_parts_f>
    2046:	01 c0       	rjmp	.+2      	; 0x204a <__gtsf2+0x58>
    2048:	8f ef       	ldi	r24, 0xFF	; 255
    204a:	68 96       	adiw	r28, 0x18	; 24
    204c:	e6 e0       	ldi	r30, 0x06	; 6
    204e:	0c 94 9f 12 	jmp	0x253e	; 0x253e <__epilogue_restores__+0x18>

00002052 <__gesf2>:
    2052:	a8 e1       	ldi	r26, 0x18	; 24
    2054:	b0 e0       	ldi	r27, 0x00	; 0
    2056:	ef e2       	ldi	r30, 0x2F	; 47
    2058:	f0 e1       	ldi	r31, 0x10	; 16
    205a:	0c 94 83 12 	jmp	0x2506	; 0x2506 <__prologue_saves__+0x18>
    205e:	69 83       	std	Y+1, r22	; 0x01
    2060:	7a 83       	std	Y+2, r23	; 0x02
    2062:	8b 83       	std	Y+3, r24	; 0x03
    2064:	9c 83       	std	Y+4, r25	; 0x04
    2066:	2d 83       	std	Y+5, r18	; 0x05
    2068:	3e 83       	std	Y+6, r19	; 0x06
    206a:	4f 83       	std	Y+7, r20	; 0x07
    206c:	58 87       	std	Y+8, r21	; 0x08
    206e:	8e 01       	movw	r16, r28
    2070:	07 5f       	subi	r16, 0xF7	; 247
    2072:	1f 4f       	sbci	r17, 0xFF	; 255
    2074:	ce 01       	movw	r24, r28
    2076:	01 96       	adiw	r24, 0x01	; 1
    2078:	b8 01       	movw	r22, r16
    207a:	0e 94 a9 11 	call	0x2352	; 0x2352 <__unpack_f>
    207e:	81 e1       	ldi	r24, 0x11	; 17
    2080:	e8 2e       	mov	r14, r24
    2082:	f1 2c       	mov	r15, r1
    2084:	ec 0e       	add	r14, r28
    2086:	fd 1e       	adc	r15, r29
    2088:	ce 01       	movw	r24, r28
    208a:	05 96       	adiw	r24, 0x05	; 5
    208c:	b7 01       	movw	r22, r14
    208e:	0e 94 a9 11 	call	0x2352	; 0x2352 <__unpack_f>
    2092:	89 85       	ldd	r24, Y+9	; 0x09
    2094:	82 30       	cpi	r24, 0x02	; 2
    2096:	40 f0       	brcs	.+16     	; 0x20a8 <__gesf2+0x56>
    2098:	89 89       	ldd	r24, Y+17	; 0x11
    209a:	82 30       	cpi	r24, 0x02	; 2
    209c:	28 f0       	brcs	.+10     	; 0x20a8 <__gesf2+0x56>
    209e:	c8 01       	movw	r24, r16
    20a0:	b7 01       	movw	r22, r14
    20a2:	0e 94 12 12 	call	0x2424	; 0x2424 <__fpcmp_parts_f>
    20a6:	01 c0       	rjmp	.+2      	; 0x20aa <__gesf2+0x58>
    20a8:	8f ef       	ldi	r24, 0xFF	; 255
    20aa:	68 96       	adiw	r28, 0x18	; 24
    20ac:	e6 e0       	ldi	r30, 0x06	; 6
    20ae:	0c 94 9f 12 	jmp	0x253e	; 0x253e <__epilogue_restores__+0x18>

000020b2 <__ltsf2>:
    20b2:	a8 e1       	ldi	r26, 0x18	; 24
    20b4:	b0 e0       	ldi	r27, 0x00	; 0
    20b6:	ef e5       	ldi	r30, 0x5F	; 95
    20b8:	f0 e1       	ldi	r31, 0x10	; 16
    20ba:	0c 94 83 12 	jmp	0x2506	; 0x2506 <__prologue_saves__+0x18>
    20be:	69 83       	std	Y+1, r22	; 0x01
    20c0:	7a 83       	std	Y+2, r23	; 0x02
    20c2:	8b 83       	std	Y+3, r24	; 0x03
    20c4:	9c 83       	std	Y+4, r25	; 0x04
    20c6:	2d 83       	std	Y+5, r18	; 0x05
    20c8:	3e 83       	std	Y+6, r19	; 0x06
    20ca:	4f 83       	std	Y+7, r20	; 0x07
    20cc:	58 87       	std	Y+8, r21	; 0x08
    20ce:	8e 01       	movw	r16, r28
    20d0:	07 5f       	subi	r16, 0xF7	; 247
    20d2:	1f 4f       	sbci	r17, 0xFF	; 255
    20d4:	ce 01       	movw	r24, r28
    20d6:	01 96       	adiw	r24, 0x01	; 1
    20d8:	b8 01       	movw	r22, r16
    20da:	0e 94 a9 11 	call	0x2352	; 0x2352 <__unpack_f>
    20de:	81 e1       	ldi	r24, 0x11	; 17
    20e0:	e8 2e       	mov	r14, r24
    20e2:	f1 2c       	mov	r15, r1
    20e4:	ec 0e       	add	r14, r28
    20e6:	fd 1e       	adc	r15, r29
    20e8:	ce 01       	movw	r24, r28
    20ea:	05 96       	adiw	r24, 0x05	; 5
    20ec:	b7 01       	movw	r22, r14
    20ee:	0e 94 a9 11 	call	0x2352	; 0x2352 <__unpack_f>
    20f2:	89 85       	ldd	r24, Y+9	; 0x09
    20f4:	82 30       	cpi	r24, 0x02	; 2
    20f6:	40 f0       	brcs	.+16     	; 0x2108 <__ltsf2+0x56>
    20f8:	89 89       	ldd	r24, Y+17	; 0x11
    20fa:	82 30       	cpi	r24, 0x02	; 2
    20fc:	28 f0       	brcs	.+10     	; 0x2108 <__ltsf2+0x56>
    20fe:	c8 01       	movw	r24, r16
    2100:	b7 01       	movw	r22, r14
    2102:	0e 94 12 12 	call	0x2424	; 0x2424 <__fpcmp_parts_f>
    2106:	01 c0       	rjmp	.+2      	; 0x210a <__ltsf2+0x58>
    2108:	81 e0       	ldi	r24, 0x01	; 1
    210a:	68 96       	adiw	r28, 0x18	; 24
    210c:	e6 e0       	ldi	r30, 0x06	; 6
    210e:	0c 94 9f 12 	jmp	0x253e	; 0x253e <__epilogue_restores__+0x18>

00002112 <__fixsfsi>:
    2112:	ac e0       	ldi	r26, 0x0C	; 12
    2114:	b0 e0       	ldi	r27, 0x00	; 0
    2116:	ef e8       	ldi	r30, 0x8F	; 143
    2118:	f0 e1       	ldi	r31, 0x10	; 16
    211a:	0c 94 87 12 	jmp	0x250e	; 0x250e <__prologue_saves__+0x20>
    211e:	69 83       	std	Y+1, r22	; 0x01
    2120:	7a 83       	std	Y+2, r23	; 0x02
    2122:	8b 83       	std	Y+3, r24	; 0x03
    2124:	9c 83       	std	Y+4, r25	; 0x04
    2126:	ce 01       	movw	r24, r28
    2128:	01 96       	adiw	r24, 0x01	; 1
    212a:	be 01       	movw	r22, r28
    212c:	6b 5f       	subi	r22, 0xFB	; 251
    212e:	7f 4f       	sbci	r23, 0xFF	; 255
    2130:	0e 94 a9 11 	call	0x2352	; 0x2352 <__unpack_f>
    2134:	8d 81       	ldd	r24, Y+5	; 0x05
    2136:	82 30       	cpi	r24, 0x02	; 2
    2138:	81 f1       	breq	.+96     	; 0x219a <__fixsfsi+0x88>
    213a:	82 30       	cpi	r24, 0x02	; 2
    213c:	70 f1       	brcs	.+92     	; 0x219a <__fixsfsi+0x88>
    213e:	84 30       	cpi	r24, 0x04	; 4
    2140:	21 f4       	brne	.+8      	; 0x214a <__fixsfsi+0x38>
    2142:	8e 81       	ldd	r24, Y+6	; 0x06
    2144:	88 23       	and	r24, r24
    2146:	69 f1       	breq	.+90     	; 0x21a2 <__fixsfsi+0x90>
    2148:	0a c0       	rjmp	.+20     	; 0x215e <__fixsfsi+0x4c>
    214a:	2f 81       	ldd	r18, Y+7	; 0x07
    214c:	38 85       	ldd	r19, Y+8	; 0x08
    214e:	37 fd       	sbrc	r19, 7
    2150:	24 c0       	rjmp	.+72     	; 0x219a <__fixsfsi+0x88>
    2152:	6e 81       	ldd	r22, Y+6	; 0x06
    2154:	2f 31       	cpi	r18, 0x1F	; 31
    2156:	31 05       	cpc	r19, r1
    2158:	3c f0       	brlt	.+14     	; 0x2168 <__fixsfsi+0x56>
    215a:	66 23       	and	r22, r22
    215c:	11 f1       	breq	.+68     	; 0x21a2 <__fixsfsi+0x90>
    215e:	20 e0       	ldi	r18, 0x00	; 0
    2160:	30 e0       	ldi	r19, 0x00	; 0
    2162:	40 e0       	ldi	r20, 0x00	; 0
    2164:	50 e8       	ldi	r21, 0x80	; 128
    2166:	21 c0       	rjmp	.+66     	; 0x21aa <__fixsfsi+0x98>
    2168:	8e e1       	ldi	r24, 0x1E	; 30
    216a:	90 e0       	ldi	r25, 0x00	; 0
    216c:	82 1b       	sub	r24, r18
    216e:	93 0b       	sbc	r25, r19
    2170:	29 85       	ldd	r18, Y+9	; 0x09
    2172:	3a 85       	ldd	r19, Y+10	; 0x0a
    2174:	4b 85       	ldd	r20, Y+11	; 0x0b
    2176:	5c 85       	ldd	r21, Y+12	; 0x0c
    2178:	04 c0       	rjmp	.+8      	; 0x2182 <__fixsfsi+0x70>
    217a:	56 95       	lsr	r21
    217c:	47 95       	ror	r20
    217e:	37 95       	ror	r19
    2180:	27 95       	ror	r18
    2182:	8a 95       	dec	r24
    2184:	d2 f7       	brpl	.-12     	; 0x217a <__fixsfsi+0x68>
    2186:	66 23       	and	r22, r22
    2188:	81 f0       	breq	.+32     	; 0x21aa <__fixsfsi+0x98>
    218a:	50 95       	com	r21
    218c:	40 95       	com	r20
    218e:	30 95       	com	r19
    2190:	21 95       	neg	r18
    2192:	3f 4f       	sbci	r19, 0xFF	; 255
    2194:	4f 4f       	sbci	r20, 0xFF	; 255
    2196:	5f 4f       	sbci	r21, 0xFF	; 255
    2198:	08 c0       	rjmp	.+16     	; 0x21aa <__fixsfsi+0x98>
    219a:	20 e0       	ldi	r18, 0x00	; 0
    219c:	30 e0       	ldi	r19, 0x00	; 0
    219e:	a9 01       	movw	r20, r18
    21a0:	04 c0       	rjmp	.+8      	; 0x21aa <__fixsfsi+0x98>
    21a2:	2f ef       	ldi	r18, 0xFF	; 255
    21a4:	3f ef       	ldi	r19, 0xFF	; 255
    21a6:	4f ef       	ldi	r20, 0xFF	; 255
    21a8:	5f e7       	ldi	r21, 0x7F	; 127
    21aa:	b9 01       	movw	r22, r18
    21ac:	ca 01       	movw	r24, r20
    21ae:	2c 96       	adiw	r28, 0x0c	; 12
    21b0:	e2 e0       	ldi	r30, 0x02	; 2
    21b2:	0c 94 a3 12 	jmp	0x2546	; 0x2546 <__epilogue_restores__+0x20>

000021b6 <__pack_f>:
    21b6:	ef 92       	push	r14
    21b8:	ff 92       	push	r15
    21ba:	0f 93       	push	r16
    21bc:	1f 93       	push	r17
    21be:	cf 93       	push	r28
    21c0:	df 93       	push	r29
    21c2:	fc 01       	movw	r30, r24
    21c4:	24 81       	ldd	r18, Z+4	; 0x04
    21c6:	35 81       	ldd	r19, Z+5	; 0x05
    21c8:	46 81       	ldd	r20, Z+6	; 0x06
    21ca:	57 81       	ldd	r21, Z+7	; 0x07
    21cc:	61 81       	ldd	r22, Z+1	; 0x01
    21ce:	80 81       	ld	r24, Z
    21d0:	82 30       	cpi	r24, 0x02	; 2
    21d2:	20 f4       	brcc	.+8      	; 0x21dc <__pack_f+0x26>
    21d4:	40 61       	ori	r20, 0x10	; 16
    21d6:	ef ef       	ldi	r30, 0xFF	; 255
    21d8:	f0 e0       	ldi	r31, 0x00	; 0
    21da:	a3 c0       	rjmp	.+326    	; 0x2322 <__pack_f+0x16c>
    21dc:	84 30       	cpi	r24, 0x04	; 4
    21de:	09 f4       	brne	.+2      	; 0x21e2 <__pack_f+0x2c>
    21e0:	9b c0       	rjmp	.+310    	; 0x2318 <__pack_f+0x162>
    21e2:	82 30       	cpi	r24, 0x02	; 2
    21e4:	09 f4       	brne	.+2      	; 0x21e8 <__pack_f+0x32>
    21e6:	92 c0       	rjmp	.+292    	; 0x230c <__pack_f+0x156>
    21e8:	21 15       	cp	r18, r1
    21ea:	31 05       	cpc	r19, r1
    21ec:	41 05       	cpc	r20, r1
    21ee:	51 05       	cpc	r21, r1
    21f0:	09 f4       	brne	.+2      	; 0x21f4 <__pack_f+0x3e>
    21f2:	8f c0       	rjmp	.+286    	; 0x2312 <__pack_f+0x15c>
    21f4:	02 80       	ldd	r0, Z+2	; 0x02
    21f6:	f3 81       	ldd	r31, Z+3	; 0x03
    21f8:	e0 2d       	mov	r30, r0
    21fa:	8f ef       	ldi	r24, 0xFF	; 255
    21fc:	e2 38       	cpi	r30, 0x82	; 130
    21fe:	f8 07       	cpc	r31, r24
    2200:	0c f0       	brlt	.+2      	; 0x2204 <__pack_f+0x4e>
    2202:	5a c0       	rjmp	.+180    	; 0x22b8 <__pack_f+0x102>
    2204:	c2 e8       	ldi	r28, 0x82	; 130
    2206:	df ef       	ldi	r29, 0xFF	; 255
    2208:	ce 1b       	sub	r28, r30
    220a:	df 0b       	sbc	r29, r31
    220c:	ca 31       	cpi	r28, 0x1A	; 26
    220e:	d1 05       	cpc	r29, r1
    2210:	6c f5       	brge	.+90     	; 0x226c <__pack_f+0xb6>
    2212:	79 01       	movw	r14, r18
    2214:	8a 01       	movw	r16, r20
    2216:	0c 2e       	mov	r0, r28
    2218:	04 c0       	rjmp	.+8      	; 0x2222 <__pack_f+0x6c>
    221a:	16 95       	lsr	r17
    221c:	07 95       	ror	r16
    221e:	f7 94       	ror	r15
    2220:	e7 94       	ror	r14
    2222:	0a 94       	dec	r0
    2224:	d2 f7       	brpl	.-12     	; 0x221a <__pack_f+0x64>
    2226:	81 e0       	ldi	r24, 0x01	; 1
    2228:	90 e0       	ldi	r25, 0x00	; 0
    222a:	a0 e0       	ldi	r26, 0x00	; 0
    222c:	b0 e0       	ldi	r27, 0x00	; 0
    222e:	0c 2e       	mov	r0, r28
    2230:	04 c0       	rjmp	.+8      	; 0x223a <__pack_f+0x84>
    2232:	88 0f       	add	r24, r24
    2234:	99 1f       	adc	r25, r25
    2236:	aa 1f       	adc	r26, r26
    2238:	bb 1f       	adc	r27, r27
    223a:	0a 94       	dec	r0
    223c:	d2 f7       	brpl	.-12     	; 0x2232 <__pack_f+0x7c>
    223e:	01 97       	sbiw	r24, 0x01	; 1
    2240:	a1 09       	sbc	r26, r1
    2242:	b1 09       	sbc	r27, r1
    2244:	82 23       	and	r24, r18
    2246:	93 23       	and	r25, r19
    2248:	a4 23       	and	r26, r20
    224a:	b5 23       	and	r27, r21
    224c:	21 e0       	ldi	r18, 0x01	; 1
    224e:	30 e0       	ldi	r19, 0x00	; 0
    2250:	40 e0       	ldi	r20, 0x00	; 0
    2252:	50 e0       	ldi	r21, 0x00	; 0
    2254:	00 97       	sbiw	r24, 0x00	; 0
    2256:	a1 05       	cpc	r26, r1
    2258:	b1 05       	cpc	r27, r1
    225a:	19 f4       	brne	.+6      	; 0x2262 <__pack_f+0xac>
    225c:	20 e0       	ldi	r18, 0x00	; 0
    225e:	30 e0       	ldi	r19, 0x00	; 0
    2260:	a9 01       	movw	r20, r18
    2262:	2e 29       	or	r18, r14
    2264:	3f 29       	or	r19, r15
    2266:	40 2b       	or	r20, r16
    2268:	51 2b       	or	r21, r17
    226a:	03 c0       	rjmp	.+6      	; 0x2272 <__pack_f+0xbc>
    226c:	20 e0       	ldi	r18, 0x00	; 0
    226e:	30 e0       	ldi	r19, 0x00	; 0
    2270:	a9 01       	movw	r20, r18
    2272:	da 01       	movw	r26, r20
    2274:	c9 01       	movw	r24, r18
    2276:	8f 77       	andi	r24, 0x7F	; 127
    2278:	90 70       	andi	r25, 0x00	; 0
    227a:	a0 70       	andi	r26, 0x00	; 0
    227c:	b0 70       	andi	r27, 0x00	; 0
    227e:	80 34       	cpi	r24, 0x40	; 64
    2280:	91 05       	cpc	r25, r1
    2282:	a1 05       	cpc	r26, r1
    2284:	b1 05       	cpc	r27, r1
    2286:	39 f4       	brne	.+14     	; 0x2296 <__pack_f+0xe0>
    2288:	27 ff       	sbrs	r18, 7
    228a:	09 c0       	rjmp	.+18     	; 0x229e <__pack_f+0xe8>
    228c:	20 5c       	subi	r18, 0xC0	; 192
    228e:	3f 4f       	sbci	r19, 0xFF	; 255
    2290:	4f 4f       	sbci	r20, 0xFF	; 255
    2292:	5f 4f       	sbci	r21, 0xFF	; 255
    2294:	04 c0       	rjmp	.+8      	; 0x229e <__pack_f+0xe8>
    2296:	21 5c       	subi	r18, 0xC1	; 193
    2298:	3f 4f       	sbci	r19, 0xFF	; 255
    229a:	4f 4f       	sbci	r20, 0xFF	; 255
    229c:	5f 4f       	sbci	r21, 0xFF	; 255
    229e:	e1 e0       	ldi	r30, 0x01	; 1
    22a0:	f0 e0       	ldi	r31, 0x00	; 0
    22a2:	20 30       	cpi	r18, 0x00	; 0
    22a4:	80 e0       	ldi	r24, 0x00	; 0
    22a6:	38 07       	cpc	r19, r24
    22a8:	80 e0       	ldi	r24, 0x00	; 0
    22aa:	48 07       	cpc	r20, r24
    22ac:	80 e4       	ldi	r24, 0x40	; 64
    22ae:	58 07       	cpc	r21, r24
    22b0:	28 f5       	brcc	.+74     	; 0x22fc <__pack_f+0x146>
    22b2:	e0 e0       	ldi	r30, 0x00	; 0
    22b4:	f0 e0       	ldi	r31, 0x00	; 0
    22b6:	22 c0       	rjmp	.+68     	; 0x22fc <__pack_f+0x146>
    22b8:	e0 38       	cpi	r30, 0x80	; 128
    22ba:	f1 05       	cpc	r31, r1
    22bc:	6c f5       	brge	.+90     	; 0x2318 <__pack_f+0x162>
    22be:	e1 58       	subi	r30, 0x81	; 129
    22c0:	ff 4f       	sbci	r31, 0xFF	; 255
    22c2:	da 01       	movw	r26, r20
    22c4:	c9 01       	movw	r24, r18
    22c6:	8f 77       	andi	r24, 0x7F	; 127
    22c8:	90 70       	andi	r25, 0x00	; 0
    22ca:	a0 70       	andi	r26, 0x00	; 0
    22cc:	b0 70       	andi	r27, 0x00	; 0
    22ce:	80 34       	cpi	r24, 0x40	; 64
    22d0:	91 05       	cpc	r25, r1
    22d2:	a1 05       	cpc	r26, r1
    22d4:	b1 05       	cpc	r27, r1
    22d6:	39 f4       	brne	.+14     	; 0x22e6 <__pack_f+0x130>
    22d8:	27 ff       	sbrs	r18, 7
    22da:	09 c0       	rjmp	.+18     	; 0x22ee <__pack_f+0x138>
    22dc:	20 5c       	subi	r18, 0xC0	; 192
    22de:	3f 4f       	sbci	r19, 0xFF	; 255
    22e0:	4f 4f       	sbci	r20, 0xFF	; 255
    22e2:	5f 4f       	sbci	r21, 0xFF	; 255
    22e4:	04 c0       	rjmp	.+8      	; 0x22ee <__pack_f+0x138>
    22e6:	21 5c       	subi	r18, 0xC1	; 193
    22e8:	3f 4f       	sbci	r19, 0xFF	; 255
    22ea:	4f 4f       	sbci	r20, 0xFF	; 255
    22ec:	5f 4f       	sbci	r21, 0xFF	; 255
    22ee:	57 ff       	sbrs	r21, 7
    22f0:	05 c0       	rjmp	.+10     	; 0x22fc <__pack_f+0x146>
    22f2:	56 95       	lsr	r21
    22f4:	47 95       	ror	r20
    22f6:	37 95       	ror	r19
    22f8:	27 95       	ror	r18
    22fa:	31 96       	adiw	r30, 0x01	; 1
    22fc:	87 e0       	ldi	r24, 0x07	; 7
    22fe:	56 95       	lsr	r21
    2300:	47 95       	ror	r20
    2302:	37 95       	ror	r19
    2304:	27 95       	ror	r18
    2306:	8a 95       	dec	r24
    2308:	d1 f7       	brne	.-12     	; 0x22fe <__pack_f+0x148>
    230a:	0b c0       	rjmp	.+22     	; 0x2322 <__pack_f+0x16c>
    230c:	e0 e0       	ldi	r30, 0x00	; 0
    230e:	f0 e0       	ldi	r31, 0x00	; 0
    2310:	05 c0       	rjmp	.+10     	; 0x231c <__pack_f+0x166>
    2312:	e0 e0       	ldi	r30, 0x00	; 0
    2314:	f0 e0       	ldi	r31, 0x00	; 0
    2316:	05 c0       	rjmp	.+10     	; 0x2322 <__pack_f+0x16c>
    2318:	ef ef       	ldi	r30, 0xFF	; 255
    231a:	f0 e0       	ldi	r31, 0x00	; 0
    231c:	20 e0       	ldi	r18, 0x00	; 0
    231e:	30 e0       	ldi	r19, 0x00	; 0
    2320:	a9 01       	movw	r20, r18
    2322:	8e 2f       	mov	r24, r30
    2324:	87 95       	ror	r24
    2326:	88 27       	eor	r24, r24
    2328:	87 95       	ror	r24
    232a:	94 2f       	mov	r25, r20
    232c:	9f 77       	andi	r25, 0x7F	; 127
    232e:	67 95       	ror	r22
    2330:	66 27       	eor	r22, r22
    2332:	67 95       	ror	r22
    2334:	e6 95       	lsr	r30
    2336:	e2 2e       	mov	r14, r18
    2338:	a9 2f       	mov	r26, r25
    233a:	a8 2b       	or	r26, r24
    233c:	fe 2f       	mov	r31, r30
    233e:	f6 2b       	or	r31, r22
    2340:	62 2f       	mov	r22, r18
    2342:	73 2f       	mov	r23, r19
    2344:	8a 2f       	mov	r24, r26
    2346:	9f 2f       	mov	r25, r31
    2348:	cd b7       	in	r28, 0x3d	; 61
    234a:	de b7       	in	r29, 0x3e	; 62
    234c:	e6 e0       	ldi	r30, 0x06	; 6
    234e:	0c 94 9f 12 	jmp	0x253e	; 0x253e <__epilogue_restores__+0x18>

00002352 <__unpack_f>:
    2352:	dc 01       	movw	r26, r24
    2354:	fb 01       	movw	r30, r22
    2356:	2c 91       	ld	r18, X
    2358:	11 96       	adiw	r26, 0x01	; 1
    235a:	3c 91       	ld	r19, X
    235c:	11 97       	sbiw	r26, 0x01	; 1
    235e:	12 96       	adiw	r26, 0x02	; 2
    2360:	8c 91       	ld	r24, X
    2362:	12 97       	sbiw	r26, 0x02	; 2
    2364:	48 2f       	mov	r20, r24
    2366:	4f 77       	andi	r20, 0x7F	; 127
    2368:	50 e0       	ldi	r21, 0x00	; 0
    236a:	98 2f       	mov	r25, r24
    236c:	99 1f       	adc	r25, r25
    236e:	99 27       	eor	r25, r25
    2370:	99 1f       	adc	r25, r25
    2372:	13 96       	adiw	r26, 0x03	; 3
    2374:	6c 91       	ld	r22, X
    2376:	13 97       	sbiw	r26, 0x03	; 3
    2378:	86 2f       	mov	r24, r22
    237a:	88 0f       	add	r24, r24
    237c:	89 2b       	or	r24, r25
    237e:	90 e0       	ldi	r25, 0x00	; 0
    2380:	66 1f       	adc	r22, r22
    2382:	66 27       	eor	r22, r22
    2384:	66 1f       	adc	r22, r22
    2386:	61 83       	std	Z+1, r22	; 0x01
    2388:	00 97       	sbiw	r24, 0x00	; 0
    238a:	39 f5       	brne	.+78     	; 0x23da <__unpack_f+0x88>
    238c:	21 15       	cp	r18, r1
    238e:	31 05       	cpc	r19, r1
    2390:	41 05       	cpc	r20, r1
    2392:	51 05       	cpc	r21, r1
    2394:	11 f4       	brne	.+4      	; 0x239a <__unpack_f+0x48>
    2396:	82 e0       	ldi	r24, 0x02	; 2
    2398:	29 c0       	rjmp	.+82     	; 0x23ec <__unpack_f+0x9a>
    239a:	82 e8       	ldi	r24, 0x82	; 130
    239c:	9f ef       	ldi	r25, 0xFF	; 255
    239e:	93 83       	std	Z+3, r25	; 0x03
    23a0:	82 83       	std	Z+2, r24	; 0x02
    23a2:	67 e0       	ldi	r22, 0x07	; 7
    23a4:	22 0f       	add	r18, r18
    23a6:	33 1f       	adc	r19, r19
    23a8:	44 1f       	adc	r20, r20
    23aa:	55 1f       	adc	r21, r21
    23ac:	6a 95       	dec	r22
    23ae:	d1 f7       	brne	.-12     	; 0x23a4 <__unpack_f+0x52>
    23b0:	83 e0       	ldi	r24, 0x03	; 3
    23b2:	80 83       	st	Z, r24
    23b4:	09 c0       	rjmp	.+18     	; 0x23c8 <__unpack_f+0x76>
    23b6:	22 0f       	add	r18, r18
    23b8:	33 1f       	adc	r19, r19
    23ba:	44 1f       	adc	r20, r20
    23bc:	55 1f       	adc	r21, r21
    23be:	82 81       	ldd	r24, Z+2	; 0x02
    23c0:	93 81       	ldd	r25, Z+3	; 0x03
    23c2:	01 97       	sbiw	r24, 0x01	; 1
    23c4:	93 83       	std	Z+3, r25	; 0x03
    23c6:	82 83       	std	Z+2, r24	; 0x02
    23c8:	20 30       	cpi	r18, 0x00	; 0
    23ca:	80 e0       	ldi	r24, 0x00	; 0
    23cc:	38 07       	cpc	r19, r24
    23ce:	80 e0       	ldi	r24, 0x00	; 0
    23d0:	48 07       	cpc	r20, r24
    23d2:	80 e4       	ldi	r24, 0x40	; 64
    23d4:	58 07       	cpc	r21, r24
    23d6:	78 f3       	brcs	.-34     	; 0x23b6 <__unpack_f+0x64>
    23d8:	20 c0       	rjmp	.+64     	; 0x241a <__unpack_f+0xc8>
    23da:	8f 3f       	cpi	r24, 0xFF	; 255
    23dc:	91 05       	cpc	r25, r1
    23de:	79 f4       	brne	.+30     	; 0x23fe <__unpack_f+0xac>
    23e0:	21 15       	cp	r18, r1
    23e2:	31 05       	cpc	r19, r1
    23e4:	41 05       	cpc	r20, r1
    23e6:	51 05       	cpc	r21, r1
    23e8:	19 f4       	brne	.+6      	; 0x23f0 <__unpack_f+0x9e>
    23ea:	84 e0       	ldi	r24, 0x04	; 4
    23ec:	80 83       	st	Z, r24
    23ee:	08 95       	ret
    23f0:	44 ff       	sbrs	r20, 4
    23f2:	03 c0       	rjmp	.+6      	; 0x23fa <__unpack_f+0xa8>
    23f4:	81 e0       	ldi	r24, 0x01	; 1
    23f6:	80 83       	st	Z, r24
    23f8:	10 c0       	rjmp	.+32     	; 0x241a <__unpack_f+0xc8>
    23fa:	10 82       	st	Z, r1
    23fc:	0e c0       	rjmp	.+28     	; 0x241a <__unpack_f+0xc8>
    23fe:	8f 57       	subi	r24, 0x7F	; 127
    2400:	90 40       	sbci	r25, 0x00	; 0
    2402:	93 83       	std	Z+3, r25	; 0x03
    2404:	82 83       	std	Z+2, r24	; 0x02
    2406:	83 e0       	ldi	r24, 0x03	; 3
    2408:	80 83       	st	Z, r24
    240a:	87 e0       	ldi	r24, 0x07	; 7
    240c:	22 0f       	add	r18, r18
    240e:	33 1f       	adc	r19, r19
    2410:	44 1f       	adc	r20, r20
    2412:	55 1f       	adc	r21, r21
    2414:	8a 95       	dec	r24
    2416:	d1 f7       	brne	.-12     	; 0x240c <__unpack_f+0xba>
    2418:	50 64       	ori	r21, 0x40	; 64
    241a:	24 83       	std	Z+4, r18	; 0x04
    241c:	35 83       	std	Z+5, r19	; 0x05
    241e:	46 83       	std	Z+6, r20	; 0x06
    2420:	57 83       	std	Z+7, r21	; 0x07
    2422:	08 95       	ret

00002424 <__fpcmp_parts_f>:
    2424:	fc 01       	movw	r30, r24
    2426:	db 01       	movw	r26, r22
    2428:	90 81       	ld	r25, Z
    242a:	92 30       	cpi	r25, 0x02	; 2
    242c:	08 f4       	brcc	.+2      	; 0x2430 <__fpcmp_parts_f+0xc>
    242e:	49 c0       	rjmp	.+146    	; 0x24c2 <__fpcmp_parts_f+0x9e>
    2430:	8c 91       	ld	r24, X
    2432:	82 30       	cpi	r24, 0x02	; 2
    2434:	08 f4       	brcc	.+2      	; 0x2438 <__fpcmp_parts_f+0x14>
    2436:	45 c0       	rjmp	.+138    	; 0x24c2 <__fpcmp_parts_f+0x9e>
    2438:	94 30       	cpi	r25, 0x04	; 4
    243a:	51 f4       	brne	.+20     	; 0x2450 <__fpcmp_parts_f+0x2c>
    243c:	61 81       	ldd	r22, Z+1	; 0x01
    243e:	84 30       	cpi	r24, 0x04	; 4
    2440:	b1 f5       	brne	.+108    	; 0x24ae <__fpcmp_parts_f+0x8a>
    2442:	11 96       	adiw	r26, 0x01	; 1
    2444:	2c 91       	ld	r18, X
    2446:	11 97       	sbiw	r26, 0x01	; 1
    2448:	30 e0       	ldi	r19, 0x00	; 0
    244a:	26 1b       	sub	r18, r22
    244c:	31 09       	sbc	r19, r1
    244e:	41 c0       	rjmp	.+130    	; 0x24d2 <__fpcmp_parts_f+0xae>
    2450:	84 30       	cpi	r24, 0x04	; 4
    2452:	21 f0       	breq	.+8      	; 0x245c <__fpcmp_parts_f+0x38>
    2454:	92 30       	cpi	r25, 0x02	; 2
    2456:	41 f4       	brne	.+16     	; 0x2468 <__fpcmp_parts_f+0x44>
    2458:	82 30       	cpi	r24, 0x02	; 2
    245a:	b1 f1       	breq	.+108    	; 0x24c8 <__fpcmp_parts_f+0xa4>
    245c:	11 96       	adiw	r26, 0x01	; 1
    245e:	8c 91       	ld	r24, X
    2460:	11 97       	sbiw	r26, 0x01	; 1
    2462:	88 23       	and	r24, r24
    2464:	a1 f1       	breq	.+104    	; 0x24ce <__fpcmp_parts_f+0xaa>
    2466:	2d c0       	rjmp	.+90     	; 0x24c2 <__fpcmp_parts_f+0x9e>
    2468:	61 81       	ldd	r22, Z+1	; 0x01
    246a:	82 30       	cpi	r24, 0x02	; 2
    246c:	01 f1       	breq	.+64     	; 0x24ae <__fpcmp_parts_f+0x8a>
    246e:	11 96       	adiw	r26, 0x01	; 1
    2470:	8c 91       	ld	r24, X
    2472:	11 97       	sbiw	r26, 0x01	; 1
    2474:	68 17       	cp	r22, r24
    2476:	d9 f4       	brne	.+54     	; 0x24ae <__fpcmp_parts_f+0x8a>
    2478:	22 81       	ldd	r18, Z+2	; 0x02
    247a:	33 81       	ldd	r19, Z+3	; 0x03
    247c:	12 96       	adiw	r26, 0x02	; 2
    247e:	8d 91       	ld	r24, X+
    2480:	9c 91       	ld	r25, X
    2482:	13 97       	sbiw	r26, 0x03	; 3
    2484:	82 17       	cp	r24, r18
    2486:	93 07       	cpc	r25, r19
    2488:	94 f0       	brlt	.+36     	; 0x24ae <__fpcmp_parts_f+0x8a>
    248a:	28 17       	cp	r18, r24
    248c:	39 07       	cpc	r19, r25
    248e:	bc f0       	brlt	.+46     	; 0x24be <__fpcmp_parts_f+0x9a>
    2490:	24 81       	ldd	r18, Z+4	; 0x04
    2492:	35 81       	ldd	r19, Z+5	; 0x05
    2494:	46 81       	ldd	r20, Z+6	; 0x06
    2496:	57 81       	ldd	r21, Z+7	; 0x07
    2498:	14 96       	adiw	r26, 0x04	; 4
    249a:	8d 91       	ld	r24, X+
    249c:	9d 91       	ld	r25, X+
    249e:	0d 90       	ld	r0, X+
    24a0:	bc 91       	ld	r27, X
    24a2:	a0 2d       	mov	r26, r0
    24a4:	82 17       	cp	r24, r18
    24a6:	93 07       	cpc	r25, r19
    24a8:	a4 07       	cpc	r26, r20
    24aa:	b5 07       	cpc	r27, r21
    24ac:	18 f4       	brcc	.+6      	; 0x24b4 <__fpcmp_parts_f+0x90>
    24ae:	66 23       	and	r22, r22
    24b0:	41 f0       	breq	.+16     	; 0x24c2 <__fpcmp_parts_f+0x9e>
    24b2:	0d c0       	rjmp	.+26     	; 0x24ce <__fpcmp_parts_f+0xaa>
    24b4:	28 17       	cp	r18, r24
    24b6:	39 07       	cpc	r19, r25
    24b8:	4a 07       	cpc	r20, r26
    24ba:	5b 07       	cpc	r21, r27
    24bc:	28 f4       	brcc	.+10     	; 0x24c8 <__fpcmp_parts_f+0xa4>
    24be:	66 23       	and	r22, r22
    24c0:	31 f0       	breq	.+12     	; 0x24ce <__fpcmp_parts_f+0xaa>
    24c2:	21 e0       	ldi	r18, 0x01	; 1
    24c4:	30 e0       	ldi	r19, 0x00	; 0
    24c6:	05 c0       	rjmp	.+10     	; 0x24d2 <__fpcmp_parts_f+0xae>
    24c8:	20 e0       	ldi	r18, 0x00	; 0
    24ca:	30 e0       	ldi	r19, 0x00	; 0
    24cc:	02 c0       	rjmp	.+4      	; 0x24d2 <__fpcmp_parts_f+0xae>
    24ce:	2f ef       	ldi	r18, 0xFF	; 255
    24d0:	3f ef       	ldi	r19, 0xFF	; 255
    24d2:	c9 01       	movw	r24, r18
    24d4:	08 95       	ret

000024d6 <__udivmodqi4>:
    24d6:	99 1b       	sub	r25, r25
    24d8:	79 e0       	ldi	r23, 0x09	; 9
    24da:	04 c0       	rjmp	.+8      	; 0x24e4 <__udivmodqi4_ep>

000024dc <__udivmodqi4_loop>:
    24dc:	99 1f       	adc	r25, r25
    24de:	96 17       	cp	r25, r22
    24e0:	08 f0       	brcs	.+2      	; 0x24e4 <__udivmodqi4_ep>
    24e2:	96 1b       	sub	r25, r22

000024e4 <__udivmodqi4_ep>:
    24e4:	88 1f       	adc	r24, r24
    24e6:	7a 95       	dec	r23
    24e8:	c9 f7       	brne	.-14     	; 0x24dc <__udivmodqi4_loop>
    24ea:	80 95       	com	r24
    24ec:	08 95       	ret

000024ee <__prologue_saves__>:
    24ee:	2f 92       	push	r2
    24f0:	3f 92       	push	r3
    24f2:	4f 92       	push	r4
    24f4:	5f 92       	push	r5
    24f6:	6f 92       	push	r6
    24f8:	7f 92       	push	r7
    24fa:	8f 92       	push	r8
    24fc:	9f 92       	push	r9
    24fe:	af 92       	push	r10
    2500:	bf 92       	push	r11
    2502:	cf 92       	push	r12
    2504:	df 92       	push	r13
    2506:	ef 92       	push	r14
    2508:	ff 92       	push	r15
    250a:	0f 93       	push	r16
    250c:	1f 93       	push	r17
    250e:	cf 93       	push	r28
    2510:	df 93       	push	r29
    2512:	cd b7       	in	r28, 0x3d	; 61
    2514:	de b7       	in	r29, 0x3e	; 62
    2516:	ca 1b       	sub	r28, r26
    2518:	db 0b       	sbc	r29, r27
    251a:	0f b6       	in	r0, 0x3f	; 63
    251c:	f8 94       	cli
    251e:	de bf       	out	0x3e, r29	; 62
    2520:	0f be       	out	0x3f, r0	; 63
    2522:	cd bf       	out	0x3d, r28	; 61
    2524:	09 94       	ijmp

00002526 <__epilogue_restores__>:
    2526:	2a 88       	ldd	r2, Y+18	; 0x12
    2528:	39 88       	ldd	r3, Y+17	; 0x11
    252a:	48 88       	ldd	r4, Y+16	; 0x10
    252c:	5f 84       	ldd	r5, Y+15	; 0x0f
    252e:	6e 84       	ldd	r6, Y+14	; 0x0e
    2530:	7d 84       	ldd	r7, Y+13	; 0x0d
    2532:	8c 84       	ldd	r8, Y+12	; 0x0c
    2534:	9b 84       	ldd	r9, Y+11	; 0x0b
    2536:	aa 84       	ldd	r10, Y+10	; 0x0a
    2538:	b9 84       	ldd	r11, Y+9	; 0x09
    253a:	c8 84       	ldd	r12, Y+8	; 0x08
    253c:	df 80       	ldd	r13, Y+7	; 0x07
    253e:	ee 80       	ldd	r14, Y+6	; 0x06
    2540:	fd 80       	ldd	r15, Y+5	; 0x05
    2542:	0c 81       	ldd	r16, Y+4	; 0x04
    2544:	1b 81       	ldd	r17, Y+3	; 0x03
    2546:	aa 81       	ldd	r26, Y+2	; 0x02
    2548:	b9 81       	ldd	r27, Y+1	; 0x01
    254a:	ce 0f       	add	r28, r30
    254c:	d1 1d       	adc	r29, r1
    254e:	0f b6       	in	r0, 0x3f	; 63
    2550:	f8 94       	cli
    2552:	de bf       	out	0x3e, r29	; 62
    2554:	0f be       	out	0x3f, r0	; 63
    2556:	cd bf       	out	0x3d, r28	; 61
    2558:	ed 01       	movw	r28, r26
    255a:	08 95       	ret

0000255c <_exit>:
    255c:	f8 94       	cli

0000255e <__stop_program>:
    255e:	ff cf       	rjmp	.-2      	; 0x255e <__stop_program>
